

Microchip MPLAB XC8 Assembler V2.35 build 20211206165544 
                                                                                               Sat Apr 30 17:04:08 2022

Microchip MPLAB XC8 C Compiler v2.35 (Free license) build 20211206165544 Og1 
     1                           	processor	16F887
     2                           	pagewidth 120
     3                           	opt	flic
     4                           	psect	cinit,global,class=CODE,merge=1,delta=2
     5                           	psect	bssBANK1,global,class=BANK1,space=1,delta=1,noexec
     6                           	psect	cstackBANK1,global,class=BANK1,space=1,delta=1,noexec
     7                           	psect	cstackCOMMON,global,class=COMMON,space=1,delta=1,noexec
     8                           	psect	cstackBANK0,global,class=BANK0,space=1,delta=1,noexec
     9                           	psect	maintext,global,class=CODE,split=1,delta=2
    10                           	psect	text1,local,class=CODE,merge=1,delta=2
    11                           	psect	text2,local,class=CODE,merge=1,delta=2
    12                           	psect	intentry,global,class=CODE,delta=2
    13                           	psect	text3,local,class=CODE,merge=1,delta=2
    14                           	psect	text4,local,class=CODE,merge=1,delta=2,group=1
    15                           	psect	text5,local,class=CODE,merge=1,delta=2,group=1
    16                           	psect	text6,local,class=CODE,merge=1,delta=2,group=1
    17                           	psect	text7,local,class=CODE,merge=1,delta=2,group=1
    18                           	psect	text8,local,class=CODE,merge=1,delta=2,group=1
    19                           	psect	text9,local,class=CODE,merge=1,delta=2,group=1
    20                           	psect	idloc,global,abs,ovrld,class=IDLOC,space=5,delta=2,noexec
    21                           	psect	config,global,abs,ovrld,class=CONFIG,space=4,delta=2,noexec
    22                           	dabs	1,0x7E,2
    23  0000                     
    24                           ; Version 2.40
    25                           ; Generated 17/11/2021 GMT
    26                           ; 
    27                           ; Copyright © 2021, Microchip Technology Inc. and its subsidiaries ("Microchip")
    28                           ; All rights reserved.
    29                           ; 
    30                           ; This software is developed by Microchip Technology Inc. and its subsidiaries ("Microch
      +                          ip").
    31                           ; 
    32                           ; Redistribution and use in source and binary forms, with or without modification, are
    33                           ; permitted provided that the following conditions are met:
    34                           ; 
    35                           ;     1. Redistributions of source code must retain the above copyright notice, this lis
      +                          t of
    36                           ;        conditions and the following disclaimer.
    37                           ; 
    38                           ;     2. Redistributions in binary form must reproduce the above copyright notice, this 
      +                          list
    39                           ;        of conditions and the following disclaimer in the documentation and/or other
    40                           ;        materials provided with the distribution. Publication is not required when
    41                           ;        this file is used in an embedded application.
    42                           ; 
    43                           ;     3. Microchip's name may not be used to endorse or promote products derived from th
      +                          is
    44                           ;        software without specific prior written permission.
    45                           ; 
    46                           ; THIS SOFTWARE IS PROVIDED BY MICROCHIP "AS IS" AND ANY EXPRESS OR IMPLIED WARRANTIES,
    47                           ; INCLUDING, BUT NOT LIMITED TO, THE IMPLIED WARRANTIES OF MERCHANTABILITY AND FITNESS F
      +                          OR
    48                           ; PURPOSE ARE DISCLAIMED.  IN NO EVENT SHALL MICROCHIP BE LIABLE FOR ANY DIRECT, INDIREC
      +                          T,
    49                           ; INCIDENTAL, SPECIAL, EXEMPLARY, OR CONSEQUENTIAL DAMAGES (INCLUDING BUT NOT LIMITED TO
    50                           ; PROCUREMENT OF SUBSTITUTE GOODS OR SERVICES; LOSS OF USE, DATA OR PROFITS; OR BUSINESS
    51                           ; INTERRUPTION) HOWSOEVER CAUSED AND ON ANY THEORY OF LIABILITY, WHETHER IN CONTRACT, ST
      +                          RICT
    52                           ; LIABILITY, OR TORT (INCLUDING NEGLIGENCE OR OTHERWISE) ARISING IN ANY WAY OUT OF THE U
      +                          SE OF
    53                           ; THIS SOFTWARE, EVEN IF ADVISED OF THE POSSIBILITY OF SUCH DAMAGE.
    54                           ; 
    55                           ; 
    56                           ; Code-generator required, PIC16F887 Definitions
    57                           ; 
    58                           ; SFR Addresses
    59  0000                     	;# 
    60  0001                     	;# 
    61  0002                     	;# 
    62  0003                     	;# 
    63  0004                     	;# 
    64  0005                     	;# 
    65  0006                     	;# 
    66  0007                     	;# 
    67  0008                     	;# 
    68  0009                     	;# 
    69  000A                     	;# 
    70  000B                     	;# 
    71  000C                     	;# 
    72  000D                     	;# 
    73  000E                     	;# 
    74  000E                     	;# 
    75  000F                     	;# 
    76  0010                     	;# 
    77  0011                     	;# 
    78  0012                     	;# 
    79  0013                     	;# 
    80  0014                     	;# 
    81  0015                     	;# 
    82  0015                     	;# 
    83  0016                     	;# 
    84  0017                     	;# 
    85  0018                     	;# 
    86  0019                     	;# 
    87  001A                     	;# 
    88  001B                     	;# 
    89  001B                     	;# 
    90  001C                     	;# 
    91  001D                     	;# 
    92  001E                     	;# 
    93  001F                     	;# 
    94  0081                     	;# 
    95  0085                     	;# 
    96  0086                     	;# 
    97  0087                     	;# 
    98  0088                     	;# 
    99  0089                     	;# 
   100  008C                     	;# 
   101  008D                     	;# 
   102  008E                     	;# 
   103  008F                     	;# 
   104  0090                     	;# 
   105  0091                     	;# 
   106  0092                     	;# 
   107  0093                     	;# 
   108  0093                     	;# 
   109  0093                     	;# 
   110  0094                     	;# 
   111  0095                     	;# 
   112  0096                     	;# 
   113  0097                     	;# 
   114  0098                     	;# 
   115  0099                     	;# 
   116  009A                     	;# 
   117  009B                     	;# 
   118  009C                     	;# 
   119  009D                     	;# 
   120  009E                     	;# 
   121  009F                     	;# 
   122  0105                     	;# 
   123  0107                     	;# 
   124  0108                     	;# 
   125  0109                     	;# 
   126  010C                     	;# 
   127  010C                     	;# 
   128  010D                     	;# 
   129  010E                     	;# 
   130  010F                     	;# 
   131  0185                     	;# 
   132  0187                     	;# 
   133  0188                     	;# 
   134  0189                     	;# 
   135  018C                     	;# 
   136  018D                     	;# 
   137  0000                     	;# 
   138  0001                     	;# 
   139  0002                     	;# 
   140  0003                     	;# 
   141  0004                     	;# 
   142  0005                     	;# 
   143  0006                     	;# 
   144  0007                     	;# 
   145  0008                     	;# 
   146  0009                     	;# 
   147  000A                     	;# 
   148  000B                     	;# 
   149  000C                     	;# 
   150  000D                     	;# 
   151  000E                     	;# 
   152  000E                     	;# 
   153  000F                     	;# 
   154  0010                     	;# 
   155  0011                     	;# 
   156  0012                     	;# 
   157  0013                     	;# 
   158  0014                     	;# 
   159  0015                     	;# 
   160  0015                     	;# 
   161  0016                     	;# 
   162  0017                     	;# 
   163  0018                     	;# 
   164  0019                     	;# 
   165  001A                     	;# 
   166  001B                     	;# 
   167  001B                     	;# 
   168  001C                     	;# 
   169  001D                     	;# 
   170  001E                     	;# 
   171  001F                     	;# 
   172  0081                     	;# 
   173  0085                     	;# 
   174  0086                     	;# 
   175  0087                     	;# 
   176  0088                     	;# 
   177  0089                     	;# 
   178  008C                     	;# 
   179  008D                     	;# 
   180  008E                     	;# 
   181  008F                     	;# 
   182  0090                     	;# 
   183  0091                     	;# 
   184  0092                     	;# 
   185  0093                     	;# 
   186  0093                     	;# 
   187  0093                     	;# 
   188  0094                     	;# 
   189  0095                     	;# 
   190  0096                     	;# 
   191  0097                     	;# 
   192  0098                     	;# 
   193  0099                     	;# 
   194  009A                     	;# 
   195  009B                     	;# 
   196  009C                     	;# 
   197  009D                     	;# 
   198  009E                     	;# 
   199  009F                     	;# 
   200  0105                     	;# 
   201  0107                     	;# 
   202  0108                     	;# 
   203  0109                     	;# 
   204  010C                     	;# 
   205  010C                     	;# 
   206  010D                     	;# 
   207  010E                     	;# 
   208  010F                     	;# 
   209  0185                     	;# 
   210  0187                     	;# 
   211  0188                     	;# 
   212  0189                     	;# 
   213  018C                     	;# 
   214  018D                     	;# 
   215  0012                     _T2CONbits	set	18
   216  001D                     _CCP2CON	set	29
   217  0017                     _CCP1CON	set	23
   218  0005                     _PORTA	set	5
   219  0001                     _TMR0	set	1
   220  0007                     _PORTCbits	set	7
   221  000B                     _INTCONbits	set	11
   222  001D                     _CCP2CONbits	set	29
   223  001B                     _CCPR2L	set	27
   224  0017                     _CCP1CONbits	set	23
   225  0015                     _CCPR1L	set	21
   226  001E                     _ADRESH	set	30
   227  001F                     _ADCON0bits	set	31
   228  000C                     _PIR1bits	set	12
   229  0081                     _OPTION_REGbits	set	129
   230  008C                     _PIE1bits	set	140
   231  0092                     _PR2	set	146
   232  0087                     _TRISCbits	set	135
   233  009F                     _ADCON1bits	set	159
   234  008F                     _OSCCONbits	set	143
   235  0087                     _TRISC	set	135
   236  0085                     _TRISA	set	133
   237  0189                     _ANSELH	set	393
   238  0188                     _ANSEL	set	392
   239                           
   240                           	psect	cinit
   241  0013                     start_initialization:	
   242                           ; #config settings
   243                           
   244  0013                     __initialization:
   245                           
   246                           ; Clear objects allocated to BANK1
   247  0013  1683               	bsf	3,5	;RP0=1, select bank1
   248  0014  1303               	bcf	3,6	;RP1=0, select bank1
   249  0015  01B3               	clrf	__pbssBANK1& (0+127)
   250  0016  01B4               	clrf	(__pbssBANK1+1)& (0+127)
   251  0017  01B5               	clrf	(__pbssBANK1+2)& (0+127)
   252  0018  01B6               	clrf	(__pbssBANK1+3)& (0+127)
   253  0019  01B7               	clrf	(__pbssBANK1+4)& (0+127)
   254  001A  01B8               	clrf	(__pbssBANK1+5)& (0+127)
   255  001B  01B9               	clrf	(__pbssBANK1+6)& (0+127)
   256  001C                     end_of_initialization:	
   257                           ;End of C runtime variable initialization code
   258                           
   259  001C                     __end_of__initialization:
   260  001C  0183               	clrf	3
   261  001D  120A  158A  2C48   	ljmp	_main	;jump to C main() function
   262                           
   263                           	psect	bssBANK1
   264  00B3                     __pbssBANK1:
   265  00B3                     _POT3:
   266  00B3                     	ds	2
   267  00B5                     _CCPR_2:
   268  00B5                     	ds	2
   269  00B7                     _CCPR:
   270  00B7                     	ds	2
   271  00B9                     _contador:
   272  00B9                     	ds	1
   273                           
   274                           	psect	cstackBANK1
   275  00A0                     __pcstackBANK1:
   276  00A0                     ??___fltol:
   277                           
   278                           ; 1 bytes @ 0x0
   279  00A0                     	ds	5
   280  00A5                     ?_map:
   281  00A5                     map@x0:	
   282                           ; 2 bytes @ 0x5
   283                           
   284                           
   285                           ; 1 bytes @ 0x5
   286  00A5                     	ds	1
   287  00A6                     map@x1:
   288                           
   289                           ; 1 bytes @ 0x6
   290  00A6                     	ds	1
   291  00A7                     map@y0:
   292                           
   293                           ; 2 bytes @ 0x7
   294  00A7                     	ds	2
   295  00A9                     map@y1:
   296                           
   297                           ; 2 bytes @ 0x9
   298  00A9                     	ds	2
   299  00AB                     ??_isr:
   300                           
   301                           ; 1 bytes @ 0xB
   302  00AB                     	ds	6
   303  00B1                     ??_setup:
   304                           
   305                           ; 1 bytes @ 0x11
   306  00B1                     	ds	1
   307  00B2                     ??_main:
   308                           
   309                           ; 1 bytes @ 0x12
   310  00B2                     	ds	1
   311                           
   312                           	psect	cstackCOMMON
   313  0070                     __pcstackCOMMON:
   314  0070                     ?_setup:
   315  0070                     ?_isr:	
   316                           ; 1 bytes @ 0x0
   317                           
   318  0070                     ?_main:	
   319                           ; 1 bytes @ 0x0
   320                           
   321  0070                     ?__Umul8_16:	
   322                           ; 1 bytes @ 0x0
   323                           
   324  0070                     ?___xxtofl:	
   325                           ; 2 bytes @ 0x0
   326                           
   327  0070                     __Umul8_16@multiplicand:	
   328                           ; 4 bytes @ 0x0
   329                           
   330  0070                     ___xxtofl@val:	
   331                           ; 1 bytes @ 0x0
   332                           
   333                           
   334                           ; 4 bytes @ 0x0
   335  0070                     	ds	2
   336  0072                     ??__Umul8_16:
   337                           
   338                           ; 1 bytes @ 0x2
   339  0072                     	ds	2
   340  0074                     ??___xxtofl:
   341  0074                     __Umul8_16@product:	
   342                           ; 1 bytes @ 0x4
   343                           
   344                           
   345                           ; 2 bytes @ 0x4
   346  0074                     	ds	2
   347  0076                     __Umul8_16@word_mpld:
   348                           
   349                           ; 2 bytes @ 0x6
   350  0076                     	ds	2
   351  0078                     __Umul8_16@multiplier:
   352  0078                     ___xxtofl@sign:	
   353                           ; 1 bytes @ 0x8
   354                           
   355                           
   356                           ; 1 bytes @ 0x8
   357  0078                     	ds	1
   358  0079                     ___xxtofl@exp:
   359                           
   360                           ; 1 bytes @ 0x9
   361  0079                     	ds	1
   362  007A                     ___xxtofl@arg:
   363                           
   364                           ; 4 bytes @ 0xA
   365  007A                     	ds	4
   366  007E                     ??_map:
   367                           
   368                           	psect	cstackBANK0
   369  0020                     __pcstackBANK0:	
   370                           ; 1 bytes @ 0xE
   371                           
   372  0020                     ?___fldiv:
   373  0020                     ___fldiv@a:	
   374                           ; 4 bytes @ 0x0
   375                           
   376                           
   377                           ; 4 bytes @ 0x0
   378  0020                     	ds	4
   379  0024                     ___fldiv@b:
   380                           
   381                           ; 4 bytes @ 0x4
   382  0024                     	ds	4
   383  0028                     ??___fldiv:
   384                           
   385                           ; 1 bytes @ 0x8
   386  0028                     	ds	5
   387  002D                     ___fldiv@rem:
   388                           
   389                           ; 4 bytes @ 0xD
   390  002D                     	ds	4
   391  0031                     ___fldiv@sign:
   392                           
   393                           ; 1 bytes @ 0x11
   394  0031                     	ds	1
   395  0032                     ___fldiv@new_exp:
   396                           
   397                           ; 2 bytes @ 0x12
   398  0032                     	ds	2
   399  0034                     ___fldiv@grs:
   400                           
   401                           ; 4 bytes @ 0x14
   402  0034                     	ds	4
   403  0038                     ___fldiv@bexp:
   404                           
   405                           ; 1 bytes @ 0x18
   406  0038                     	ds	1
   407  0039                     ___fldiv@aexp:
   408                           
   409                           ; 1 bytes @ 0x19
   410  0039                     	ds	1
   411  003A                     ?___flmul:
   412  003A                     ___flmul@b:	
   413                           ; 4 bytes @ 0x1A
   414                           
   415                           
   416                           ; 4 bytes @ 0x1A
   417  003A                     	ds	4
   418  003E                     ___flmul@a:
   419                           
   420                           ; 4 bytes @ 0x1E
   421  003E                     	ds	4
   422  0042                     ??___flmul:
   423                           
   424                           ; 1 bytes @ 0x22
   425  0042                     	ds	5
   426  0047                     ___flmul@sign:
   427                           
   428                           ; 1 bytes @ 0x27
   429  0047                     	ds	1
   430  0048                     ___flmul@grs:
   431                           
   432                           ; 4 bytes @ 0x28
   433  0048                     	ds	4
   434  004C                     ___flmul@aexp:
   435                           
   436                           ; 1 bytes @ 0x2C
   437  004C                     	ds	1
   438  004D                     ___flmul@bexp:
   439                           
   440                           ; 1 bytes @ 0x2D
   441  004D                     	ds	1
   442  004E                     ___flmul@prod:
   443                           
   444                           ; 4 bytes @ 0x2E
   445  004E                     	ds	4
   446  0052                     ___flmul@temp:
   447                           
   448                           ; 2 bytes @ 0x32
   449  0052                     	ds	2
   450  0054                     ?___fladd:
   451  0054                     ___fladd@b:	
   452                           ; 4 bytes @ 0x34
   453                           
   454                           
   455                           ; 4 bytes @ 0x34
   456  0054                     	ds	4
   457  0058                     ___fladd@a:
   458                           
   459                           ; 4 bytes @ 0x38
   460  0058                     	ds	4
   461  005C                     ??___fladd:
   462                           
   463                           ; 1 bytes @ 0x3C
   464  005C                     	ds	8
   465  0064                     ___fladd@signs:
   466                           
   467                           ; 1 bytes @ 0x44
   468  0064                     	ds	1
   469  0065                     ___fladd@aexp:
   470                           
   471                           ; 1 bytes @ 0x45
   472  0065                     	ds	1
   473  0066                     ___fladd@bexp:
   474                           
   475                           ; 1 bytes @ 0x46
   476  0066                     	ds	1
   477  0067                     ___fladd@grs:
   478                           
   479                           ; 1 bytes @ 0x47
   480  0067                     	ds	1
   481  0068                     ?___fltol:
   482  0068                     ___fltol@f1:	
   483                           ; 4 bytes @ 0x48
   484                           
   485                           
   486                           ; 4 bytes @ 0x48
   487  0068                     	ds	4
   488  006C                     ___fltol@sign1:
   489                           
   490                           ; 1 bytes @ 0x4C
   491  006C                     	ds	1
   492  006D                     ___fltol@exp1:
   493                           
   494                           ; 1 bytes @ 0x4D
   495  006D                     	ds	1
   496  006E                     map@x:
   497                           
   498                           ; 1 bytes @ 0x4E
   499  006E                     	ds	1
   500                           
   501                           	psect	maintext
   502  0C48                     __pmaintext:	
   503 ;;
   504 ;;Main: autosize = 0, tempsize = 1, incstack = 0, save=0
   505 ;;
   506 ;; *************** function _main *****************
   507 ;; Defined at:
   508 ;;		line 105 in file "main.c"
   509 ;; Parameters:    Size  Location     Type
   510 ;;		None
   511 ;; Auto vars:     Size  Location     Type
   512 ;;		None
   513 ;; Return value:  Size  Location     Type
   514 ;;                  1    wreg      void 
   515 ;; Registers used:
   516 ;;		wreg, status,2, status,0, pclath, cstack
   517 ;; Tracked objects:
   518 ;;		On entry : B00/0
   519 ;;		On exit  : 0/0
   520 ;;		Unchanged: 0/0
   521 ;; Data sizes:     COMMON   BANK0   BANK1   BANK3   BANK2
   522 ;;      Params:         0       0       0       0       0
   523 ;;      Locals:         0       0       0       0       0
   524 ;;      Temps:          0       0       1       0       0
   525 ;;      Totals:         0       0       1       0       0
   526 ;;Total ram usage:        1 bytes
   527 ;; Hardware stack levels required when called: 5
   528 ;; This function calls:
   529 ;;		_setup
   530 ;; This function is called by:
   531 ;;		Startup code after reset
   532 ;; This function uses a non-reentrant model
   533 ;;
   534                           
   535  0C48                     _main:	
   536                           ;psect for function _main
   537                           
   538  0C48                     l2056:	
   539                           ;incstack = 0
   540                           ; Regs used in _main: [wreg+status,2+status,0+pclath+cstack]
   541                           
   542                           
   543                           ;main.c: 106:     setup();
   544  0C48  120A  158A  2498  120A  158A  	fcall	_setup
   545  0C4D                     l2058:
   546                           
   547                           ;main.c: 108:         if (ADCON0bits.GO == 0){
   548  0C4D  1283               	bcf	3,5	;RP0=0, select bank0
   549  0C4E  1303               	bcf	3,6	;RP1=0, select bank0
   550  0C4F  189F               	btfsc	31,1	;volatile
   551  0C50  2C52               	goto	u2971
   552  0C51  2C53               	goto	u2970
   553  0C52                     u2971:
   554  0C52  2C4D               	goto	l2058
   555  0C53                     u2970:
   556  0C53                     l2060:
   557                           
   558                           ;main.c: 109:             if(ADCON0bits.CHS == 0){
   559  0C53  0C1F               	rrf	31,w	;volatile
   560  0C54  1683               	bsf	3,5	;RP0=1, select bank1
   561  0C55  1303               	bcf	3,6	;RP1=0, select bank1
   562  0C56  00B2               	movwf	??_main^(0+128)
   563  0C57  0C32               	rrf	??_main^(0+128),w
   564  0C58  390F               	andlw	15
   565  0C59  3A00               	xorlw	0
   566  0C5A  1D03               	skipz
   567  0C5B  2C5D               	goto	u2981
   568  0C5C  2C5E               	goto	u2980
   569  0C5D                     u2981:
   570  0C5D  2C65               	goto	l2064
   571  0C5E                     u2980:
   572  0C5E                     l2062:
   573                           
   574                           ;main.c: 110:                 ADCON0bits.CHS = 1;
   575  0C5E  1283               	bcf	3,5	;RP0=0, select bank0
   576  0C5F  1303               	bcf	3,6	;RP1=0, select bank0
   577  0C60  081F               	movf	31,w	;volatile
   578  0C61  39C3               	andlw	-61
   579  0C62  3804               	iorlw	4
   580  0C63  009F               	movwf	31	;volatile
   581                           
   582                           ;main.c: 111:             }
   583  0C64  2C8A               	goto	l2072
   584  0C65                     l2064:
   585  0C65  1283               	bcf	3,5	;RP0=0, select bank0
   586  0C66  1303               	bcf	3,6	;RP1=0, select bank0
   587  0C67  0C1F               	rrf	31,w	;volatile
   588  0C68  1683               	bsf	3,5	;RP0=1, select bank1
   589  0C69  1303               	bcf	3,6	;RP1=0, select bank1
   590  0C6A  00B2               	movwf	??_main^(0+128)
   591  0C6B  0C32               	rrf	??_main^(0+128),w
   592  0C6C  390F               	andlw	15
   593  0C6D  3A01               	xorlw	1
   594  0C6E  1D03               	skipz
   595  0C6F  2C71               	goto	u2991
   596  0C70  2C72               	goto	u2990
   597  0C71                     u2991:
   598  0C71  2C79               	goto	l2068
   599  0C72                     u2990:
   600  0C72                     l2066:
   601                           
   602                           ;main.c: 113:                 ADCON0bits.CHS = 2;
   603  0C72  1283               	bcf	3,5	;RP0=0, select bank0
   604  0C73  1303               	bcf	3,6	;RP1=0, select bank0
   605  0C74  081F               	movf	31,w	;volatile
   606  0C75  39C3               	andlw	-61
   607  0C76  3808               	iorlw	8
   608  0C77  009F               	movwf	31	;volatile
   609                           
   610                           ;main.c: 114:             }
   611  0C78  2C8A               	goto	l2072
   612  0C79                     l2068:
   613  0C79  1283               	bcf	3,5	;RP0=0, select bank0
   614  0C7A  1303               	bcf	3,6	;RP1=0, select bank0
   615  0C7B  0C1F               	rrf	31,w	;volatile
   616  0C7C  1683               	bsf	3,5	;RP0=1, select bank1
   617  0C7D  1303               	bcf	3,6	;RP1=0, select bank1
   618  0C7E  00B2               	movwf	??_main^(0+128)
   619  0C7F  0C32               	rrf	??_main^(0+128),w
   620  0C80  390F               	andlw	15
   621  0C81  3A02               	xorlw	2
   622  0C82  1D03               	skipz
   623  0C83  2C85               	goto	u3001
   624  0C84  2C86               	goto	u3000
   625  0C85                     u3001:
   626  0C85  2C8A               	goto	l2072
   627  0C86                     u3000:
   628  0C86                     l2070:
   629                           
   630                           ;main.c: 116:                 ADCON0bits.CHS = 0;
   631  0C86  30C3               	movlw	-61
   632  0C87  1283               	bcf	3,5	;RP0=0, select bank0
   633  0C88  1303               	bcf	3,6	;RP1=0, select bank0
   634  0C89  059F               	andwf	31,f	;volatile
   635  0C8A                     l2072:
   636                           
   637                           ;main.c: 118:              _delay((unsigned long)((40)*(4000000/4000000.0)));
   638  0C8A  300C               	movlw	12
   639  0C8B  1683               	bsf	3,5	;RP0=1, select bank1
   640  0C8C  1303               	bcf	3,6	;RP1=0, select bank1
   641  0C8D  00B2               	movwf	??_main^(0+128)
   642  0C8E                     u3017:
   643  0C8E  0BB2               	decfsz	??_main^(0+128),f
   644  0C8F  2C8E               	goto	u3017
   645  0C90  0000               	nop
   646  0C91                     l2074:
   647                           
   648                           ;main.c: 119:             ADCON0bits.GO = 1;
   649  0C91  1283               	bcf	3,5	;RP0=0, select bank0
   650  0C92  1303               	bcf	3,6	;RP1=0, select bank0
   651  0C93  149F               	bsf	31,1	;volatile
   652  0C94  2C4D               	goto	l2058
   653  0C95  120A  118A  2810   	ljmp	start
   654  0C98                     __end_of_main:
   655                           
   656                           	psect	text1
   657  0C98                     __ptext1:	
   658 ;; *************** function _setup *****************
   659 ;; Defined at:
   660 ;;		line 128 in file "main.c"
   661 ;; Parameters:    Size  Location     Type
   662 ;;		None
   663 ;; Auto vars:     Size  Location     Type
   664 ;;		None
   665 ;; Return value:  Size  Location     Type
   666 ;;                  1    wreg      void 
   667 ;; Registers used:
   668 ;;		wreg, status,2, status,0
   669 ;; Tracked objects:
   670 ;;		On entry : 0/0
   671 ;;		On exit  : 0/0
   672 ;;		Unchanged: 0/0
   673 ;; Data sizes:     COMMON   BANK0   BANK1   BANK3   BANK2
   674 ;;      Params:         0       0       0       0       0
   675 ;;      Locals:         0       0       0       0       0
   676 ;;      Temps:          0       0       1       0       0
   677 ;;      Totals:         0       0       1       0       0
   678 ;;Total ram usage:        1 bytes
   679 ;; Hardware stack levels used: 1
   680 ;; Hardware stack levels required when called: 4
   681 ;; This function calls:
   682 ;;		Nothing
   683 ;; This function is called by:
   684 ;;		_main
   685 ;; This function uses a non-reentrant model
   686 ;;
   687                           
   688  0C98                     _setup:	
   689                           ;psect for function _setup
   690                           
   691  0C98                     l1958:	
   692                           ;incstack = 0
   693                           ; Regs used in _setup: [wreg+status,2+status,0]
   694                           
   695                           
   696                           ;main.c: 129:     ANSEL = 0b111;
   697  0C98  3007               	movlw	7
   698  0C99  1683               	bsf	3,5	;RP0=1, select bank3
   699  0C9A  1703               	bsf	3,6	;RP1=1, select bank3
   700  0C9B  0088               	movwf	8	;volatile
   701  0C9C                     l1960:
   702                           
   703                           ;main.c: 130:     ANSELH = 0x00;
   704  0C9C  0189               	clrf	9	;volatile
   705  0C9D                     l1962:
   706                           
   707                           ;main.c: 131:     TRISA = 0b111;
   708  0C9D  3007               	movlw	7
   709  0C9E  1683               	bsf	3,5	;RP0=1, select bank1
   710  0C9F  1303               	bcf	3,6	;RP1=0, select bank1
   711  0CA0  0085               	movwf	5	;volatile
   712  0CA1                     l1964:
   713                           
   714                           ;main.c: 132:     TRISC = 0b100;
   715  0CA1  3004               	movlw	4
   716  0CA2  0087               	movwf	7	;volatile
   717  0CA3                     l1966:
   718                           
   719                           ;main.c: 133:     PORTA = 0x00;
   720  0CA3  1283               	bcf	3,5	;RP0=0, select bank0
   721  0CA4  1303               	bcf	3,6	;RP1=0, select bank0
   722  0CA5  0185               	clrf	5	;volatile
   723  0CA6                     l1968:
   724                           
   725                           ;main.c: 136:     OSCCONbits.IRCF = 0b110;
   726  0CA6  1683               	bsf	3,5	;RP0=1, select bank1
   727  0CA7  1303               	bcf	3,6	;RP1=0, select bank1
   728  0CA8  080F               	movf	15,w	;volatile
   729  0CA9  398F               	andlw	-113
   730  0CAA  3860               	iorlw	96
   731  0CAB  008F               	movwf	15	;volatile
   732  0CAC                     l1970:
   733                           
   734                           ;main.c: 137:     OSCCONbits.SCS = 1;
   735  0CAC  140F               	bsf	15,0	;volatile
   736  0CAD                     l1972:
   737                           
   738                           ;main.c: 140:     ADCON0bits.ADCS = 0b01;
   739  0CAD  1283               	bcf	3,5	;RP0=0, select bank0
   740  0CAE  1303               	bcf	3,6	;RP1=0, select bank0
   741  0CAF  081F               	movf	31,w	;volatile
   742  0CB0  393F               	andlw	-193
   743  0CB1  3840               	iorlw	64
   744  0CB2  009F               	movwf	31	;volatile
   745  0CB3                     l1974:
   746                           
   747                           ;main.c: 141:     ADCON1bits.VCFG0 = 0;
   748  0CB3  1683               	bsf	3,5	;RP0=1, select bank1
   749  0CB4  1303               	bcf	3,6	;RP1=0, select bank1
   750  0CB5  121F               	bcf	31,4	;volatile
   751  0CB6                     l1976:
   752                           
   753                           ;main.c: 142:     ADCON1bits.VCFG1 = 0;
   754  0CB6  129F               	bcf	31,5	;volatile
   755  0CB7                     l1978:
   756                           
   757                           ;main.c: 143:     ADCON0bits.CHS = 0b0000;
   758  0CB7  30C3               	movlw	-61
   759  0CB8  1283               	bcf	3,5	;RP0=0, select bank0
   760  0CB9  1303               	bcf	3,6	;RP1=0, select bank0
   761  0CBA  059F               	andwf	31,f	;volatile
   762  0CBB                     l1980:
   763                           
   764                           ;main.c: 144:     ADCON1bits.ADFM = 0;
   765  0CBB  1683               	bsf	3,5	;RP0=1, select bank1
   766  0CBC  1303               	bcf	3,6	;RP1=0, select bank1
   767  0CBD  139F               	bcf	31,7	;volatile
   768  0CBE                     l1982:
   769                           
   770                           ;main.c: 145:     ADCON0bits.ADON = 1;
   771  0CBE  1283               	bcf	3,5	;RP0=0, select bank0
   772  0CBF  1303               	bcf	3,6	;RP1=0, select bank0
   773  0CC0  141F               	bsf	31,0	;volatile
   774  0CC1                     l1984:
   775                           
   776                           ;main.c: 146:     _delay((unsigned long)((40)*(4000000/4000000.0)));
   777  0CC1  300C               	movlw	12
   778  0CC2  1683               	bsf	3,5	;RP0=1, select bank1
   779  0CC3  1303               	bcf	3,6	;RP1=0, select bank1
   780  0CC4  00B1               	movwf	??_setup^(0+128)
   781  0CC5                     u3027:
   782  0CC5  0BB1               	decfsz	??_setup^(0+128),f
   783  0CC6  2CC5               	goto	u3027
   784  0CC7  0000               	nop
   785  0CC8                     l1986:
   786                           
   787                           ;main.c: 149:     TRISCbits.TRISC2 = 1;
   788  0CC8  1683               	bsf	3,5	;RP0=1, select bank1
   789  0CC9  1303               	bcf	3,6	;RP1=0, select bank1
   790  0CCA  1507               	bsf	7,2	;volatile
   791  0CCB                     l1988:
   792                           
   793                           ;main.c: 150:     TRISCbits.TRISC1 = 1;
   794  0CCB  1487               	bsf	7,1	;volatile
   795  0CCC                     l1990:
   796                           
   797                           ;main.c: 151:     PR2 = 249;
   798  0CCC  30F9               	movlw	249
   799  0CCD  0092               	movwf	18	;volatile
   800  0CCE                     l1992:
   801                           
   802                           ;main.c: 159:     CCP1CON = 0;
   803  0CCE  1283               	bcf	3,5	;RP0=0, select bank0
   804  0CCF  1303               	bcf	3,6	;RP1=0, select bank0
   805  0CD0  0197               	clrf	23	;volatile
   806  0CD1                     l1994:
   807                           
   808                           ;main.c: 160:     CCP1CONbits.P1M = 0;
   809  0CD1  303F               	movlw	-193
   810  0CD2  0597               	andwf	23,f	;volatile
   811  0CD3                     l1996:
   812                           
   813                           ;main.c: 161:     CCP1CONbits.CCP1M = 0b1100;
   814  0CD3  0817               	movf	23,w	;volatile
   815  0CD4  39F0               	andlw	-16
   816  0CD5  380C               	iorlw	12
   817  0CD6  0097               	movwf	23	;volatile
   818  0CD7                     l1998:
   819                           
   820                           ;main.c: 162:     CCPR1L = 250>>2;
   821  0CD7  303E               	movlw	62
   822  0CD8  0095               	movwf	21	;volatile
   823  0CD9                     l2000:
   824                           
   825                           ;main.c: 163:     CCP1CONbits.DC1B = 250 & 0b11;
   826  0CD9  0817               	movf	23,w	;volatile
   827  0CDA  39CF               	andlw	-49
   828  0CDB  3820               	iorlw	32
   829  0CDC  0097               	movwf	23	;volatile
   830                           
   831                           ;main.c: 166:     CCP2CON = 0;
   832  0CDD  019D               	clrf	29	;volatile
   833  0CDE                     l2002:
   834                           
   835                           ;main.c: 167:     CCP2CONbits.CCP2M = 0b1100;
   836  0CDE  081D               	movf	29,w	;volatile
   837  0CDF  39F0               	andlw	-16
   838  0CE0  380C               	iorlw	12
   839  0CE1  009D               	movwf	29	;volatile
   840  0CE2                     l2004:
   841                           
   842                           ;main.c: 168:     CCPR2L = 250>>2;
   843  0CE2  303E               	movlw	62
   844  0CE3  009B               	movwf	27	;volatile
   845  0CE4                     l2006:
   846                           
   847                           ;main.c: 169:     CCP2CONbits.DC2B0 = 250 & 0b01;
   848  0CE4  121D               	bcf	29,4	;volatile
   849  0CE5                     l2008:
   850                           
   851                           ;main.c: 170:     CCP2CONbits.DC2B1 = (250 & 0b10)>>1;
   852  0CE5  169D               	bsf	29,5	;volatile
   853  0CE6                     l2010:
   854                           
   855                           ;main.c: 172:     PIR1bits.TMR2IF = 0;
   856  0CE6  108C               	bcf	12,1	;volatile
   857  0CE7                     l2012:
   858                           
   859                           ;main.c: 173:     T2CONbits.T2CKPS = 0b11;
   860  0CE7  3003               	movlw	3
   861  0CE8  0492               	iorwf	18,f	;volatile
   862  0CE9                     l2014:
   863                           
   864                           ;main.c: 174:     T2CONbits.TMR2ON = 1;
   865  0CE9  1512               	bsf	18,2	;volatile
   866  0CEA                     l94:	
   867                           ;main.c: 175:     while(!PIR1bits.TMR2IF);
   868                           
   869  0CEA  1C8C               	btfss	12,1	;volatile
   870  0CEB  2CED               	goto	u2901
   871  0CEC  2CEE               	goto	u2900
   872  0CED                     u2901:
   873  0CED  2CEA               	goto	l94
   874  0CEE                     u2900:
   875  0CEE                     l96:
   876                           
   877                           ;main.c: 176:     PIR1bits.TMR2IF = 0;
   878  0CEE  108C               	bcf	12,1	;volatile
   879                           
   880                           ;main.c: 178:     TRISCbits.TRISC2 = 0;
   881  0CEF  1683               	bsf	3,5	;RP0=1, select bank1
   882  0CF0  1303               	bcf	3,6	;RP1=0, select bank1
   883  0CF1  1107               	bcf	7,2	;volatile
   884                           
   885                           ;main.c: 179:     TRISCbits.TRISC1 = 0;
   886  0CF2  1087               	bcf	7,1	;volatile
   887                           
   888                           ;main.c: 182:     PIR1bits.ADIF = 0;
   889  0CF3  1283               	bcf	3,5	;RP0=0, select bank0
   890  0CF4  1303               	bcf	3,6	;RP1=0, select bank0
   891  0CF5  130C               	bcf	12,6	;volatile
   892                           
   893                           ;main.c: 183:     PIE1bits.ADIE = 1;
   894  0CF6  1683               	bsf	3,5	;RP0=1, select bank1
   895  0CF7  1303               	bcf	3,6	;RP1=0, select bank1
   896  0CF8  170C               	bsf	12,6	;volatile
   897                           
   898                           ;main.c: 184:     INTCONbits.PEIE = 1;
   899  0CF9  170B               	bsf	11,6	;volatile
   900                           
   901                           ;main.c: 185:     INTCONbits.GIE = 1;
   902  0CFA  178B               	bsf	11,7	;volatile
   903                           
   904                           ;main.c: 188:     INTCONbits.T0IE = 1;
   905  0CFB  168B               	bsf	11,5	;volatile
   906                           
   907                           ;main.c: 189:     INTCONbits.T0IF = 0;
   908  0CFC  110B               	bcf	11,2	;volatile
   909                           
   910                           ;main.c: 190:     OPTION_REGbits.T0CS = 0;
   911  0CFD  1281               	bcf	1,5	;volatile
   912                           
   913                           ;main.c: 191:     OPTION_REGbits.PSA = 0;
   914  0CFE  1181               	bcf	1,3	;volatile
   915  0CFF                     l2016:
   916                           
   917                           ;main.c: 192:     OPTION_REGbits.PS = 0b000;
   918  0CFF  30F8               	movlw	-8
   919  0D00  0581               	andwf	1,f	;volatile
   920  0D01                     l2018:
   921                           
   922                           ;main.c: 200:     TMR0 = 249;
   923  0D01  30F9               	movlw	249
   924  0D02  1283               	bcf	3,5	;RP0=0, select bank0
   925  0D03  1303               	bcf	3,6	;RP1=0, select bank0
   926  0D04  0081               	movwf	1	;volatile
   927  0D05                     l97:
   928  0D05  0008               	return
   929  0D06                     __end_of_setup:
   930                           
   931                           	psect	text2
   932  0F0E                     __ptext2:	
   933 ;; *************** function _isr *****************
   934 ;; Defined at:
   935 ;;		line 66 in file "main.c"
   936 ;; Parameters:    Size  Location     Type
   937 ;;		None
   938 ;; Auto vars:     Size  Location     Type
   939 ;;		None
   940 ;; Return value:  Size  Location     Type
   941 ;;                  1    wreg      void 
   942 ;; Registers used:
   943 ;;		wreg, status,2, status,0, btemp+1, pclath, cstack
   944 ;; Tracked objects:
   945 ;;		On entry : 0/0
   946 ;;		On exit  : 0/0
   947 ;;		Unchanged: 0/0
   948 ;; Data sizes:     COMMON   BANK0   BANK1   BANK3   BANK2
   949 ;;      Params:         0       0       0       0       0
   950 ;;      Locals:         0       0       0       0       0
   951 ;;      Temps:          0       0       6       0       0
   952 ;;      Totals:         0       0       6       0       0
   953 ;;Total ram usage:        6 bytes
   954 ;; Hardware stack levels used: 1
   955 ;; Hardware stack levels required when called: 3
   956 ;; This function calls:
   957 ;;		_map
   958 ;; This function is called by:
   959 ;;		Interrupt level 1
   960 ;; This function uses a non-reentrant model
   961 ;;
   962                           
   963  0F0E                     _isr:	
   964                           ;psect for function _isr
   965                           
   966  0F0E                     i1l2020:
   967                           
   968                           ;main.c: 67:     if(PIR1bits.ADIF){
   969  0F0E  1283               	bcf	3,5	;RP0=0, select bank0
   970  0F0F  1303               	bcf	3,6	;RP1=0, select bank0
   971  0F10  1F0C               	btfss	12,6	;volatile
   972  0F11  2F13               	goto	u291_21
   973  0F12  2F14               	goto	u291_20
   974  0F13                     u291_21:
   975  0F13  2FD6               	goto	i1l67
   976  0F14                     u291_20:
   977  0F14                     i1l2022:
   978                           
   979                           ;main.c: 69:         if(ADCON0bits.CHS == 0){
   980  0F14  0C1F               	rrf	31,w	;volatile
   981  0F15  1683               	bsf	3,5	;RP0=1, select bank1
   982  0F16  1303               	bcf	3,6	;RP1=0, select bank1
   983  0F17  00AB               	movwf	??_isr^(0+128)
   984  0F18  0C2B               	rrf	??_isr^(0+128),w
   985  0F19  390F               	andlw	15
   986  0F1A  3A00               	xorlw	0
   987  0F1B  1D03               	skipz
   988  0F1C  2F1E               	goto	u292_21
   989  0F1D  2F1F               	goto	u292_20
   990  0F1E                     u292_21:
   991  0F1E  2F5A               	goto	i1l2030
   992  0F1F                     u292_20:
   993  0F1F                     i1l2024:
   994                           
   995                           ;main.c: 70:             CCPR = map(ADRESH, 0, 255, 250, 500);
   996  0F1F  01A5               	clrf	map@x0^(0+128)
   997  0F20  30FF               	movlw	255
   998  0F21  00AB               	movwf	??_isr^(0+128)
   999  0F22  082B               	movf	??_isr^(0+128),w
  1000  0F23  00A6               	movwf	map@x1^(0+128)
  1001  0F24  30FA               	movlw	250
  1002  0F25  00A7               	movwf	map@y0^(0+128)
  1003  0F26  3000               	movlw	0
  1004  0F27  00A8               	movwf	(map@y0^(0+128)+1)
  1005  0F28  30F4               	movlw	244
  1006  0F29  00A9               	movwf	map@y1^(0+128)
  1007  0F2A  3001               	movlw	1
  1008  0F2B  00AA               	movwf	(map@y1^(0+128)+1)
  1009  0F2C  1283               	bcf	3,5	;RP0=0, select bank0
  1010  0F2D  1303               	bcf	3,6	;RP1=0, select bank0
  1011  0F2E  081E               	movf	30,w	;volatile
  1012  0F2F  120A  158A  25A2  120A  158A  	fcall	_map
  1013  0F34  1683               	bsf	3,5	;RP0=1, select bank1
  1014  0F35  1303               	bcf	3,6	;RP1=0, select bank1
  1015  0F36  0826               	movf	(?_map+1)^(0+128),w
  1016  0F37  00B8               	movwf	(_CCPR+1)^(0+128)
  1017  0F38  0825               	movf	?_map^(0+128),w
  1018  0F39  00B7               	movwf	_CCPR^(0+128)
  1019  0F3A                     i1l2026:
  1020                           
  1021                           ;main.c: 71:             CCPR1L = (uint8_t)(CCPR>>2);
  1022  0F3A  0838               	movf	(_CCPR+1)^(0+128),w
  1023  0F3B  00AC               	movwf	(??_isr^(0+128)+1)
  1024  0F3C  0837               	movf	_CCPR^(0+128),w
  1025  0F3D  00AB               	movwf	??_isr^(0+128)
  1026  0F3E  1003               	clrc
  1027  0F3F  0CAC               	rrf	(??_isr^(0+128)+1),f
  1028  0F40  0CAB               	rrf	??_isr^(0+128),f
  1029  0F41  1003               	clrc
  1030  0F42  0CAC               	rrf	(??_isr^(0+128)+1),f
  1031  0F43  0CAB               	rrf	??_isr^(0+128),f
  1032  0F44  082B               	movf	??_isr^(0+128),w
  1033  0F45  1283               	bcf	3,5	;RP0=0, select bank0
  1034  0F46  1303               	bcf	3,6	;RP1=0, select bank0
  1035  0F47  0095               	movwf	21	;volatile
  1036  0F48                     i1l2028:
  1037                           
  1038                           ;main.c: 72:             CCP1CONbits.DC1B = CCPR & 0b11;
  1039  0F48  1683               	bsf	3,5	;RP0=1, select bank1
  1040  0F49  1303               	bcf	3,6	;RP1=0, select bank1
  1041  0F4A  0837               	movf	_CCPR^(0+128),w
  1042  0F4B  3903               	andlw	3
  1043  0F4C  00AB               	movwf	??_isr^(0+128)
  1044  0F4D  0EAB               	swapf	??_isr^(0+128),f
  1045  0F4E  1283               	bcf	3,5	;RP0=0, select bank0
  1046  0F4F  1303               	bcf	3,6	;RP1=0, select bank0
  1047  0F50  0817               	movf	23,w	;volatile
  1048  0F51  1683               	bsf	3,5	;RP0=1, select bank1
  1049  0F52  1303               	bcf	3,6	;RP1=0, select bank1
  1050  0F53  062B               	xorwf	??_isr^(0+128),w
  1051  0F54  39CF               	andlw	-49
  1052  0F55  062B               	xorwf	??_isr^(0+128),w
  1053  0F56  1283               	bcf	3,5	;RP0=0, select bank0
  1054  0F57  1303               	bcf	3,6	;RP1=0, select bank0
  1055  0F58  0097               	movwf	23	;volatile
  1056                           
  1057                           ;main.c: 73:         }
  1058  0F59  2FD3               	goto	i1l2044
  1059  0F5A                     i1l2030:
  1060  0F5A  1283               	bcf	3,5	;RP0=0, select bank0
  1061  0F5B  1303               	bcf	3,6	;RP1=0, select bank0
  1062  0F5C  0C1F               	rrf	31,w	;volatile
  1063  0F5D  1683               	bsf	3,5	;RP0=1, select bank1
  1064  0F5E  1303               	bcf	3,6	;RP1=0, select bank1
  1065  0F5F  00AB               	movwf	??_isr^(0+128)
  1066  0F60  0C2B               	rrf	??_isr^(0+128),w
  1067  0F61  390F               	andlw	15
  1068  0F62  3A01               	xorlw	1
  1069  0F63  1D03               	skipz
  1070  0F64  2F66               	goto	u293_21
  1071  0F65  2F67               	goto	u293_20
  1072  0F66                     u293_21:
  1073  0F66  2FBB               	goto	i1l2040
  1074  0F67                     u293_20:
  1075  0F67                     i1l2032:
  1076                           
  1077                           ;main.c: 76:             CCPR_2 = map(ADRESH, 0, 255, 250, 500);
  1078  0F67  01A5               	clrf	map@x0^(0+128)
  1079  0F68  30FF               	movlw	255
  1080  0F69  00AB               	movwf	??_isr^(0+128)
  1081  0F6A  082B               	movf	??_isr^(0+128),w
  1082  0F6B  00A6               	movwf	map@x1^(0+128)
  1083  0F6C  30FA               	movlw	250
  1084  0F6D  00A7               	movwf	map@y0^(0+128)
  1085  0F6E  3000               	movlw	0
  1086  0F6F  00A8               	movwf	(map@y0^(0+128)+1)
  1087  0F70  30F4               	movlw	244
  1088  0F71  00A9               	movwf	map@y1^(0+128)
  1089  0F72  3001               	movlw	1
  1090  0F73  00AA               	movwf	(map@y1^(0+128)+1)
  1091  0F74  1283               	bcf	3,5	;RP0=0, select bank0
  1092  0F75  1303               	bcf	3,6	;RP1=0, select bank0
  1093  0F76  081E               	movf	30,w	;volatile
  1094  0F77  120A  158A  25A2  120A  158A  	fcall	_map
  1095  0F7C  1683               	bsf	3,5	;RP0=1, select bank1
  1096  0F7D  1303               	bcf	3,6	;RP1=0, select bank1
  1097  0F7E  0826               	movf	(?_map+1)^(0+128),w
  1098  0F7F  00B6               	movwf	(_CCPR_2+1)^(0+128)
  1099  0F80  0825               	movf	?_map^(0+128),w
  1100  0F81  00B5               	movwf	_CCPR_2^(0+128)
  1101  0F82                     i1l2034:
  1102                           
  1103                           ;main.c: 77:             CCPR2L = (uint8_t)(CCPR_2>>2);
  1104  0F82  0836               	movf	(_CCPR_2+1)^(0+128),w
  1105  0F83  00AC               	movwf	(??_isr^(0+128)+1)
  1106  0F84  0835               	movf	_CCPR_2^(0+128),w
  1107  0F85  00AB               	movwf	??_isr^(0+128)
  1108  0F86  1003               	clrc
  1109  0F87  0CAC               	rrf	(??_isr^(0+128)+1),f
  1110  0F88  0CAB               	rrf	??_isr^(0+128),f
  1111  0F89  1003               	clrc
  1112  0F8A  0CAC               	rrf	(??_isr^(0+128)+1),f
  1113  0F8B  0CAB               	rrf	??_isr^(0+128),f
  1114  0F8C  082B               	movf	??_isr^(0+128),w
  1115  0F8D  1283               	bcf	3,5	;RP0=0, select bank0
  1116  0F8E  1303               	bcf	3,6	;RP1=0, select bank0
  1117  0F8F  009B               	movwf	27	;volatile
  1118  0F90                     i1l2036:
  1119                           
  1120                           ;main.c: 78:             CCP2CONbits.DC2B0 = CCPR_2 & 0b01;
  1121  0F90  1683               	bsf	3,5	;RP0=1, select bank1
  1122  0F91  1303               	bcf	3,6	;RP1=0, select bank1
  1123  0F92  0835               	movf	_CCPR_2^(0+128),w
  1124  0F93  3901               	andlw	1
  1125  0F94  00AB               	movwf	??_isr^(0+128)
  1126  0F95  0EAB               	swapf	??_isr^(0+128),f
  1127  0F96  1283               	bcf	3,5	;RP0=0, select bank0
  1128  0F97  1303               	bcf	3,6	;RP1=0, select bank0
  1129  0F98  081D               	movf	29,w	;volatile
  1130  0F99  1683               	bsf	3,5	;RP0=1, select bank1
  1131  0F9A  1303               	bcf	3,6	;RP1=0, select bank1
  1132  0F9B  062B               	xorwf	??_isr^(0+128),w
  1133  0F9C  39EF               	andlw	-17
  1134  0F9D  062B               	xorwf	??_isr^(0+128),w
  1135  0F9E  1283               	bcf	3,5	;RP0=0, select bank0
  1136  0F9F  1303               	bcf	3,6	;RP1=0, select bank0
  1137  0FA0  009D               	movwf	29	;volatile
  1138  0FA1                     i1l2038:
  1139                           
  1140                           ;main.c: 79:             CCP2CONbits.DC2B1 = (CCPR_2 & 0b10)>>1;
  1141  0FA1  1683               	bsf	3,5	;RP0=1, select bank1
  1142  0FA2  1303               	bcf	3,6	;RP1=0, select bank1
  1143  0FA3  0836               	movf	(_CCPR_2+1)^(0+128),w
  1144  0FA4  00AC               	movwf	(??_isr^(0+128)+1)
  1145  0FA5  0835               	movf	_CCPR_2^(0+128),w
  1146  0FA6  00AB               	movwf	??_isr^(0+128)
  1147  0FA7  1003               	clrc
  1148  0FA8  0CAC               	rrf	(??_isr^(0+128)+1),f
  1149  0FA9  0CAB               	rrf	??_isr^(0+128),f
  1150  0FAA  082B               	movf	??_isr^(0+128),w
  1151  0FAB  3901               	andlw	1
  1152  0FAC  00AD               	movwf	(??_isr+2)^(0+128)
  1153  0FAD  0EAD               	swapf	(??_isr+2)^(0+128),f
  1154  0FAE  0DAD               	rlf	(??_isr+2)^(0+128),f
  1155  0FAF  1283               	bcf	3,5	;RP0=0, select bank0
  1156  0FB0  1303               	bcf	3,6	;RP1=0, select bank0
  1157  0FB1  081D               	movf	29,w	;volatile
  1158  0FB2  1683               	bsf	3,5	;RP0=1, select bank1
  1159  0FB3  1303               	bcf	3,6	;RP1=0, select bank1
  1160  0FB4  062D               	xorwf	(??_isr+2)^(0+128),w
  1161  0FB5  39DF               	andlw	-33
  1162  0FB6  062D               	xorwf	(??_isr+2)^(0+128),w
  1163  0FB7  1283               	bcf	3,5	;RP0=0, select bank0
  1164  0FB8  1303               	bcf	3,6	;RP1=0, select bank0
  1165  0FB9  009D               	movwf	29	;volatile
  1166                           
  1167                           ;main.c: 80:         }
  1168  0FBA  2FD3               	goto	i1l2044
  1169  0FBB                     i1l2040:
  1170  0FBB  1283               	bcf	3,5	;RP0=0, select bank0
  1171  0FBC  1303               	bcf	3,6	;RP1=0, select bank0
  1172  0FBD  0C1F               	rrf	31,w	;volatile
  1173  0FBE  1683               	bsf	3,5	;RP0=1, select bank1
  1174  0FBF  1303               	bcf	3,6	;RP1=0, select bank1
  1175  0FC0  00AB               	movwf	??_isr^(0+128)
  1176  0FC1  0C2B               	rrf	??_isr^(0+128),w
  1177  0FC2  390F               	andlw	15
  1178  0FC3  3A02               	xorlw	2
  1179  0FC4  1D03               	skipz
  1180  0FC5  2FC7               	goto	u294_21
  1181  0FC6  2FC8               	goto	u294_20
  1182  0FC7                     u294_21:
  1183  0FC7  2FD3               	goto	i1l2044
  1184  0FC8                     u294_20:
  1185  0FC8                     i1l2042:
  1186                           
  1187                           ;main.c: 83:             POT3 = ADRESH;
  1188  0FC8  1283               	bcf	3,5	;RP0=0, select bank0
  1189  0FC9  1303               	bcf	3,6	;RP1=0, select bank0
  1190  0FCA  081E               	movf	30,w	;volatile
  1191  0FCB  1683               	bsf	3,5	;RP0=1, select bank1
  1192  0FCC  1303               	bcf	3,6	;RP1=0, select bank1
  1193  0FCD  00AB               	movwf	??_isr^(0+128)
  1194  0FCE  01AC               	clrf	(??_isr^(0+128)+1)
  1195  0FCF  082B               	movf	??_isr^(0+128),w
  1196  0FD0  00B3               	movwf	_POT3^(0+128)
  1197  0FD1  082C               	movf	(??_isr+1)^(0+128),w
  1198  0FD2  00B4               	movwf	(_POT3+1)^(0+128)
  1199  0FD3                     i1l2044:
  1200                           
  1201                           ;main.c: 85:         PIR1bits.ADIF = 0;
  1202  0FD3  1283               	bcf	3,5	;RP0=0, select bank0
  1203  0FD4  130C               	bcf	12,6	;volatile
  1204                           
  1205                           ;main.c: 86:     }
  1206  0FD5  2FF5               	goto	i1l77
  1207  0FD6                     i1l67:	
  1208                           ;main.c: 88:     else if(INTCONbits.T0IF){
  1209                           
  1210  0FD6  1D0B               	btfss	11,2	;volatile
  1211  0FD7  2FD9               	goto	u295_21
  1212  0FD8  2FDA               	goto	u295_20
  1213  0FD9                     u295_21:
  1214  0FD9  2FF5               	goto	i1l77
  1215  0FDA                     u295_20:
  1216  0FDA                     i1l2046:
  1217                           
  1218                           ;main.c: 89:             contador++;
  1219  0FDA  3001               	movlw	1
  1220  0FDB  1683               	bsf	3,5	;RP0=1, select bank1
  1221  0FDC  1303               	bcf	3,6	;RP1=0, select bank1
  1222  0FDD  00AB               	movwf	??_isr^(0+128)
  1223  0FDE  082B               	movf	??_isr^(0+128),w
  1224  0FDF  07B9               	addwf	_contador^(0+128),f
  1225  0FE0                     i1l2048:
  1226                           
  1227                           ;main.c: 90:             if(contador < POT3){
  1228  0FE0  0834               	movf	(_POT3+1)^(0+128),w
  1229  0FE1  3A80               	xorlw	128
  1230  0FE2  3C80               	sublw	128
  1231  0FE3  1D03               	skipz
  1232  0FE4  2FE7               	goto	u296_25
  1233  0FE5  0833               	movf	_POT3^(0+128),w
  1234  0FE6  0239               	subwf	_contador^(0+128),w
  1235  0FE7                     u296_25:
  1236  0FE7  1803               	skipnc
  1237  0FE8  2FEA               	goto	u296_21
  1238  0FE9  2FEB               	goto	u296_20
  1239  0FEA                     u296_21:
  1240  0FEA  2FEF               	goto	i1l75
  1241  0FEB                     u296_20:
  1242  0FEB                     i1l2050:
  1243                           
  1244                           ;main.c: 91:                 PORTCbits.RC3 = 1;
  1245  0FEB  1283               	bcf	3,5	;RP0=0, select bank0
  1246  0FEC  1303               	bcf	3,6	;RP1=0, select bank0
  1247  0FED  1587               	bsf	7,3	;volatile
  1248                           
  1249                           ;main.c: 92:             }
  1250  0FEE  2FF2               	goto	i1l76
  1251  0FEF                     i1l75:	
  1252                           ;main.c: 93:             else{
  1253                           
  1254                           
  1255                           ;main.c: 94:                 PORTCbits.RC3 = 0;
  1256  0FEF  1283               	bcf	3,5	;RP0=0, select bank0
  1257  0FF0  1303               	bcf	3,6	;RP1=0, select bank0
  1258  0FF1  1187               	bcf	7,3	;volatile
  1259  0FF2                     i1l76:	
  1260                           ;main.c: 95:             }
  1261                           
  1262                           
  1263                           ;main.c: 96:             INTCONbits.T0IF = 0;
  1264  0FF2  110B               	bcf	11,2	;volatile
  1265  0FF3                     i1l2052:
  1266                           
  1267                           ;main.c: 97:             TMR0 = 249;
  1268  0FF3  30F9               	movlw	249
  1269  0FF4  0081               	movwf	1	;volatile
  1270  0FF5                     i1l77:
  1271  0FF5  1683               	bsf	3,5	;RP0=1, select bank1
  1272  0FF6  1303               	bcf	3,6	;RP1=0, select bank1
  1273  0FF7  0830               	movf	(??_isr+5)^(0+128),w
  1274  0FF8  00FF               	movwf	btemp+1
  1275  0FF9  082F               	movf	(??_isr+4)^(0+128),w
  1276  0FFA  008A               	movwf	10
  1277  0FFB  0E2E               	swapf	(??_isr+3)^(0+128),w
  1278  0FFC  0083               	movwf	3
  1279  0FFD  0EFE               	swapf	btemp,f
  1280  0FFE  0E7E               	swapf	btemp,w
  1281  0FFF  0009               	retfie
  1282  1000                     __end_of_isr:
  1283                           
  1284                           	psect	intentry
  1285  0004                     __pintentry:	
  1286                           ;incstack = 0
  1287                           ; Regs used in _isr: [wreg+status,2+status,0+btemp+1+pclath+cstack]
  1288                           
  1289  0004                     interrupt_function:
  1290  007E                     saved_w	set	btemp
  1291  0004  00FE               	movwf	btemp
  1292  0005  0E03               	swapf	3,w
  1293  0006  1683               	bsf	3,5	;RP0=1, select bank1
  1294  0007  1303               	bcf	3,6	;RP1=0, select bank1
  1295  0008  00AE               	movwf	(??_isr+3)^(0+128)
  1296  0009  080A               	movf	10,w
  1297  000A  00AF               	movwf	(??_isr+4)^(0+128)
  1298  000B  087F               	movf	btemp+1,w
  1299  000C  00B0               	movwf	(??_isr+5)^(0+128)
  1300  000D  120A  158A  2F0E   	ljmp	_isr
  1301                           
  1302                           	psect	text3
  1303  0DA2                     __ptext3:	
  1304 ;; *************** function _map *****************
  1305 ;; Defined at:
  1306 ;;		line 207 in file "main.c"
  1307 ;; Parameters:    Size  Location     Type
  1308 ;;  x               1    wreg     unsigned char 
  1309 ;;  x0              1    5[BANK1 ] unsigned char 
  1310 ;;  x1              1    6[BANK1 ] unsigned char 
  1311 ;;  y0              2    7[BANK1 ] unsigned short 
  1312 ;;  y1              2    9[BANK1 ] unsigned short 
  1313 ;; Auto vars:     Size  Location     Type
  1314 ;;  x               1   78[BANK0 ] unsigned char 
  1315 ;; Return value:  Size  Location     Type
  1316 ;;                  2    5[BANK1 ] unsigned short 
  1317 ;; Registers used:
  1318 ;;		wreg, status,2, status,0, btemp+1, pclath, cstack
  1319 ;; Tracked objects:
  1320 ;;		On entry : 0/0
  1321 ;;		On exit  : 0/0
  1322 ;;		Unchanged: 0/0
  1323 ;; Data sizes:     COMMON   BANK0   BANK1   BANK3   BANK2
  1324 ;;      Params:         0       0       6       0       0
  1325 ;;      Locals:         0       1       0       0       0
  1326 ;;      Temps:          0       0       0       0       0
  1327 ;;      Totals:         0       1       6       0       0
  1328 ;;Total ram usage:        7 bytes
  1329 ;; Hardware stack levels used: 1
  1330 ;; Hardware stack levels required when called: 2
  1331 ;; This function calls:
  1332 ;;		___fladd
  1333 ;;		___fldiv
  1334 ;;		___flmul
  1335 ;;		___fltol
  1336 ;;		___xxtofl
  1337 ;; This function is called by:
  1338 ;;		_isr
  1339 ;; This function uses a non-reentrant model
  1340 ;;
  1341                           
  1342  0DA2                     _map:	
  1343                           ;psect for function _map
  1344                           
  1345                           
  1346                           ;incstack = 0
  1347                           ; Regs used in _map: [wreg+status,2+status,0+btemp+1+pclath+cstack]
  1348                           ;map@x stored from wreg
  1349  0DA2  1283               	bcf	3,5	;RP0=0, select bank0
  1350  0DA3  1303               	bcf	3,6	;RP1=0, select bank0
  1351  0DA4  00EE               	movwf	map@x
  1352  0DA5                     i1l1954:
  1353                           
  1354                           ;main.c: 207: unsigned short map(uint8_t x, uint8_t x0, uint8_t x1,;main.c: 208:        
      +                               unsigned short y0, unsigned short y1){;main.c: 209:     return (unsigned short)(y0+
      +                          ((float)(y1-y0)/(x1-x0))*(x-x0));
  1355  0DA5  1683               	bsf	3,5	;RP0=1, select bank1
  1356  0DA6  1303               	bcf	3,6	;RP1=0, select bank1
  1357  0DA7  0827               	movf	map@y0^(0+128),w
  1358  0DA8  00F0               	movwf	___xxtofl@val
  1359  0DA9  0828               	movf	(map@y0+1)^(0+128),w
  1360  0DAA  00F1               	movwf	___xxtofl@val+1
  1361  0DAB  01F2               	clrf	___xxtofl@val+2
  1362  0DAC  01F3               	clrf	___xxtofl@val+3
  1363  0DAD  3000               	movlw	0
  1364  0DAE  120A  158A  2654  120A  158A  	fcall	___xxtofl
  1365  0DB3  0873               	movf	?___xxtofl+3,w
  1366  0DB4  1283               	bcf	3,5	;RP0=0, select bank0
  1367  0DB5  1303               	bcf	3,6	;RP1=0, select bank0
  1368  0DB6  00DB               	movwf	___fladd@a+3
  1369  0DB7  0872               	movf	?___xxtofl+2,w
  1370  0DB8  00DA               	movwf	___fladd@a+2
  1371  0DB9  0871               	movf	?___xxtofl+1,w
  1372  0DBA  00D9               	movwf	___fladd@a+1
  1373  0DBB  0870               	movf	?___xxtofl,w
  1374  0DBC  00D8               	movwf	___fladd@a
  1375  0DBD  1683               	bsf	3,5	;RP0=1, select bank1
  1376  0DBE  1303               	bcf	3,6	;RP1=0, select bank1
  1377  0DBF  0827               	movf	map@y0^(0+128),w
  1378  0DC0  0229               	subwf	map@y1^(0+128),w
  1379  0DC1  00F0               	movwf	___xxtofl@val
  1380  0DC2  0828               	movf	(map@y0+1)^(0+128),w
  1381  0DC3  1C03               	skipc
  1382  0DC4  0A28               	incf	(map@y0+1)^(0+128),w
  1383  0DC5  022A               	subwf	(map@y1+1)^(0+128),w
  1384  0DC6  00F1               	movwf	___xxtofl@val+1
  1385  0DC7  01F2               	clrf	___xxtofl@val+2
  1386  0DC8  01F3               	clrf	___xxtofl@val+3
  1387  0DC9  3000               	movlw	0
  1388  0DCA  120A  158A  2654  120A  158A  	fcall	___xxtofl
  1389  0DCF  0873               	movf	?___xxtofl+3,w
  1390  0DD0  1283               	bcf	3,5	;RP0=0, select bank0
  1391  0DD1  1303               	bcf	3,6	;RP1=0, select bank0
  1392  0DD2  00A7               	movwf	___fldiv@b+3
  1393  0DD3  0872               	movf	?___xxtofl+2,w
  1394  0DD4  00A6               	movwf	___fldiv@b+2
  1395  0DD5  0871               	movf	?___xxtofl+1,w
  1396  0DD6  00A5               	movwf	___fldiv@b+1
  1397  0DD7  0870               	movf	?___xxtofl,w
  1398  0DD8  00A4               	movwf	___fldiv@b
  1399  0DD9  1683               	bsf	3,5	;RP0=1, select bank1
  1400  0DDA  1303               	bcf	3,6	;RP1=0, select bank1
  1401  0DDB  0825               	movf	map@x0^(0+128),w
  1402  0DDC  0226               	subwf	map@x1^(0+128),w
  1403  0DDD  00F0               	movwf	___xxtofl@val
  1404  0DDE  01F1               	clrf	___xxtofl@val+1
  1405  0DDF  1C03               	skipc
  1406  0DE0  03F1               	decf	___xxtofl@val+1,f
  1407  0DE1  01F2               	clrf	___xxtofl@val+2
  1408  0DE2  1BF1               	btfsc	___xxtofl@val+1,7
  1409  0DE3  03F2               	decf	___xxtofl@val+2,f
  1410  0DE4  0872               	movf	___xxtofl@val+2,w
  1411  0DE5  00F3               	movwf	___xxtofl@val+3
  1412  0DE6  3001               	movlw	1
  1413  0DE7  120A  158A  2654  120A  158A  	fcall	___xxtofl
  1414  0DEC  0873               	movf	?___xxtofl+3,w
  1415  0DED  1283               	bcf	3,5	;RP0=0, select bank0
  1416  0DEE  1303               	bcf	3,6	;RP1=0, select bank0
  1417  0DEF  00A3               	movwf	___fldiv@a+3
  1418  0DF0  0872               	movf	?___xxtofl+2,w
  1419  0DF1  00A2               	movwf	___fldiv@a+2
  1420  0DF2  0871               	movf	?___xxtofl+1,w
  1421  0DF3  00A1               	movwf	___fldiv@a+1
  1422  0DF4  0870               	movf	?___xxtofl,w
  1423  0DF5  00A0               	movwf	___fldiv@a
  1424  0DF6  120A  118A  2609  120A  158A  	fcall	___fldiv
  1425  0DFB  1283               	bcf	3,5	;RP0=0, select bank0
  1426  0DFC  1303               	bcf	3,6	;RP1=0, select bank0
  1427  0DFD  0823               	movf	?___fldiv+3,w
  1428  0DFE  00C1               	movwf	___flmul@a+3
  1429  0DFF  0822               	movf	?___fldiv+2,w
  1430  0E00  00C0               	movwf	___flmul@a+2
  1431  0E01  0821               	movf	?___fldiv+1,w
  1432  0E02  00BF               	movwf	___flmul@a+1
  1433  0E03  0820               	movf	?___fldiv,w
  1434  0E04  00BE               	movwf	___flmul@a
  1435  0E05  1683               	bsf	3,5	;RP0=1, select bank1
  1436  0E06  1303               	bcf	3,6	;RP1=0, select bank1
  1437  0E07  0825               	movf	map@x0^(0+128),w
  1438  0E08  1283               	bcf	3,5	;RP0=0, select bank0
  1439  0E09  1303               	bcf	3,6	;RP1=0, select bank0
  1440  0E0A  026E               	subwf	map@x,w
  1441  0E0B  00F0               	movwf	___xxtofl@val
  1442  0E0C  01F1               	clrf	___xxtofl@val+1
  1443  0E0D  1C03               	skipc
  1444  0E0E  03F1               	decf	___xxtofl@val+1,f
  1445  0E0F  01F2               	clrf	___xxtofl@val+2
  1446  0E10  1BF1               	btfsc	___xxtofl@val+1,7
  1447  0E11  03F2               	decf	___xxtofl@val+2,f
  1448  0E12  0872               	movf	___xxtofl@val+2,w
  1449  0E13  00F3               	movwf	___xxtofl@val+3
  1450  0E14  3001               	movlw	1
  1451  0E15  120A  158A  2654  120A  158A  	fcall	___xxtofl
  1452  0E1A  0873               	movf	?___xxtofl+3,w
  1453  0E1B  1283               	bcf	3,5	;RP0=0, select bank0
  1454  0E1C  1303               	bcf	3,6	;RP1=0, select bank0
  1455  0E1D  00BD               	movwf	___flmul@b+3
  1456  0E1E  0872               	movf	?___xxtofl+2,w
  1457  0E1F  00BC               	movwf	___flmul@b+2
  1458  0E20  0871               	movf	?___xxtofl+1,w
  1459  0E21  00BB               	movwf	___flmul@b+1
  1460  0E22  0870               	movf	?___xxtofl,w
  1461  0E23  00BA               	movwf	___flmul@b
  1462  0E24  120A  118A  2020  120A  158A  	fcall	___flmul
  1463  0E29  1283               	bcf	3,5	;RP0=0, select bank0
  1464  0E2A  1303               	bcf	3,6	;RP1=0, select bank0
  1465  0E2B  083D               	movf	?___flmul+3,w
  1466  0E2C  00D7               	movwf	___fladd@b+3
  1467  0E2D  083C               	movf	?___flmul+2,w
  1468  0E2E  00D6               	movwf	___fladd@b+2
  1469  0E2F  083B               	movf	?___flmul+1,w
  1470  0E30  00D5               	movwf	___fladd@b+1
  1471  0E31  083A               	movf	?___flmul,w
  1472  0E32  00D4               	movwf	___fladd@b
  1473  0E33  120A  118A  2381  120A  158A  	fcall	___fladd
  1474  0E38  1283               	bcf	3,5	;RP0=0, select bank0
  1475  0E39  1303               	bcf	3,6	;RP1=0, select bank0
  1476  0E3A  0857               	movf	?___fladd+3,w
  1477  0E3B  00EB               	movwf	___fltol@f1+3
  1478  0E3C  0856               	movf	?___fladd+2,w
  1479  0E3D  00EA               	movwf	___fltol@f1+2
  1480  0E3E  0855               	movf	?___fladd+1,w
  1481  0E3F  00E9               	movwf	___fltol@f1+1
  1482  0E40  0854               	movf	?___fladd,w
  1483  0E41  00E8               	movwf	___fltol@f1
  1484  0E42  120A  158A  2506  120A  158A  	fcall	___fltol
  1485  0E47  1283               	bcf	3,5	;RP0=0, select bank0
  1486  0E48  1303               	bcf	3,6	;RP1=0, select bank0
  1487  0E49  0869               	movf	?___fltol+1,w
  1488  0E4A  1683               	bsf	3,5	;RP0=1, select bank1
  1489  0E4B  1303               	bcf	3,6	;RP1=0, select bank1
  1490  0E4C  00A6               	movwf	(?_map+1)^(0+128)
  1491  0E4D  1283               	bcf	3,5	;RP0=0, select bank0
  1492  0E4E  1303               	bcf	3,6	;RP1=0, select bank0
  1493  0E4F  0868               	movf	?___fltol,w
  1494  0E50  1683               	bsf	3,5	;RP0=1, select bank1
  1495  0E51  1303               	bcf	3,6	;RP1=0, select bank1
  1496  0E52  00A5               	movwf	?_map^(0+128)
  1497  0E53                     i1l100:
  1498  0E53  0008               	return
  1499  0E54                     __end_of_map:
  1500                           
  1501                           	psect	text4
  1502  0E54                     __ptext4:	
  1503 ;; *************** function ___xxtofl *****************
  1504 ;; Defined at:
  1505 ;;		line 10 in file "C:\Program Files\Microchip\xc8\v2.35\pic\sources\c90\common\xxtofl.c"
  1506 ;; Parameters:    Size  Location     Type
  1507 ;;  sign            1    wreg     unsigned char 
  1508 ;;  val             4    0[COMMON] long 
  1509 ;; Auto vars:     Size  Location     Type
  1510 ;;  sign            1    8[COMMON] unsigned char 
  1511 ;;  arg             4   10[COMMON] unsigned long 
  1512 ;;  exp             1    9[COMMON] unsigned char 
  1513 ;; Return value:  Size  Location     Type
  1514 ;;                  4    0[COMMON] unsigned char 
  1515 ;; Registers used:
  1516 ;;		wreg, status,2, status,0
  1517 ;; Tracked objects:
  1518 ;;		On entry : 0/0
  1519 ;;		On exit  : 0/0
  1520 ;;		Unchanged: 0/0
  1521 ;; Data sizes:     COMMON   BANK0   BANK1   BANK3   BANK2
  1522 ;;      Params:         4       0       0       0       0
  1523 ;;      Locals:         6       0       0       0       0
  1524 ;;      Temps:          4       0       0       0       0
  1525 ;;      Totals:        14       0       0       0       0
  1526 ;;Total ram usage:       14 bytes
  1527 ;; Hardware stack levels used: 1
  1528 ;; This function calls:
  1529 ;;		Nothing
  1530 ;; This function is called by:
  1531 ;;		_map
  1532 ;; This function uses a non-reentrant model
  1533 ;;
  1534                           
  1535  0E54                     ___xxtofl:	
  1536                           ;psect for function ___xxtofl
  1537                           
  1538                           
  1539                           ;incstack = 0
  1540                           ; Regs used in ___xxtofl: [wreg+status,2+status,0]
  1541                           ;___xxtofl@sign stored from wreg
  1542  0E54  00F8               	movwf	___xxtofl@sign
  1543  0E55                     i1l1910:
  1544  0E55  0878               	movf	___xxtofl@sign,w
  1545  0E56  1903               	btfsc	3,2
  1546  0E57  2E59               	goto	u276_21
  1547  0E58  2E5A               	goto	u276_20
  1548  0E59                     u276_21:
  1549  0E59  2E6E               	goto	i1l1916
  1550  0E5A                     u276_20:
  1551  0E5A                     i1l1912:
  1552  0E5A  1FF3               	btfss	___xxtofl@val+3,7
  1553  0E5B  2E5D               	goto	u277_21
  1554  0E5C  2E5E               	goto	u277_20
  1555  0E5D                     u277_21:
  1556  0E5D  2E6E               	goto	i1l1916
  1557  0E5E                     u277_20:
  1558  0E5E                     i1l1914:
  1559  0E5E  0970               	comf	___xxtofl@val,w
  1560  0E5F  00FA               	movwf	___xxtofl@arg
  1561  0E60  0971               	comf	___xxtofl@val+1,w
  1562  0E61  00FB               	movwf	___xxtofl@arg+1
  1563  0E62  0972               	comf	___xxtofl@val+2,w
  1564  0E63  00FC               	movwf	___xxtofl@arg+2
  1565  0E64  0973               	comf	___xxtofl@val+3,w
  1566  0E65  00FD               	movwf	___xxtofl@arg+3
  1567  0E66  0AFA               	incf	___xxtofl@arg,f
  1568  0E67  1903               	skipnz
  1569  0E68  0AFB               	incf	___xxtofl@arg+1,f
  1570  0E69  1903               	skipnz
  1571  0E6A  0AFC               	incf	___xxtofl@arg+2,f
  1572  0E6B  1903               	skipnz
  1573  0E6C  0AFD               	incf	___xxtofl@arg+3,f
  1574  0E6D  2E76               	goto	i1l619
  1575  0E6E                     i1l1916:
  1576  0E6E  0873               	movf	___xxtofl@val+3,w
  1577  0E6F  00FD               	movwf	___xxtofl@arg+3
  1578  0E70  0872               	movf	___xxtofl@val+2,w
  1579  0E71  00FC               	movwf	___xxtofl@arg+2
  1580  0E72  0871               	movf	___xxtofl@val+1,w
  1581  0E73  00FB               	movwf	___xxtofl@arg+1
  1582  0E74  0870               	movf	___xxtofl@val,w
  1583  0E75  00FA               	movwf	___xxtofl@arg
  1584  0E76                     i1l619:
  1585  0E76  0873               	movf	___xxtofl@val+3,w
  1586  0E77  0472               	iorwf	___xxtofl@val+2,w
  1587  0E78  0471               	iorwf	___xxtofl@val+1,w
  1588  0E79  0470               	iorwf	___xxtofl@val,w
  1589  0E7A  1D03               	skipz
  1590  0E7B  2E7D               	goto	u278_21
  1591  0E7C  2E7E               	goto	u278_20
  1592  0E7D                     u278_21:
  1593  0E7D  2E87               	goto	i1l1922
  1594  0E7E                     u278_20:
  1595  0E7E                     i1l1918:
  1596  0E7E  3000               	movlw	0
  1597  0E7F  00F3               	movwf	?___xxtofl+3
  1598  0E80  3000               	movlw	0
  1599  0E81  00F2               	movwf	?___xxtofl+2
  1600  0E82  3000               	movlw	0
  1601  0E83  00F1               	movwf	?___xxtofl+1
  1602  0E84  3000               	movlw	0
  1603  0E85  00F0               	movwf	?___xxtofl
  1604  0E86  2F0D               	goto	i1l621
  1605  0E87                     i1l1922:
  1606  0E87  3096               	movlw	150
  1607  0E88  00F4               	movwf	??___xxtofl
  1608  0E89  0874               	movf	??___xxtofl,w
  1609  0E8A  00F9               	movwf	___xxtofl@exp
  1610  0E8B  2E99               	goto	i1l1926
  1611  0E8C                     i1l1924:
  1612  0E8C  3001               	movlw	1
  1613  0E8D  00F4               	movwf	??___xxtofl
  1614  0E8E  0874               	movf	??___xxtofl,w
  1615  0E8F  07F9               	addwf	___xxtofl@exp,f
  1616  0E90  3001               	movlw	1
  1617  0E91                     u279_25:
  1618  0E91  1003               	clrc
  1619  0E92  0CFD               	rrf	___xxtofl@arg+3,f
  1620  0E93  0CFC               	rrf	___xxtofl@arg+2,f
  1621  0E94  0CFB               	rrf	___xxtofl@arg+1,f
  1622  0E95  0CFA               	rrf	___xxtofl@arg,f
  1623  0E96  3EFF               	addlw	-1
  1624  0E97  1D03               	skipz
  1625  0E98  2E91               	goto	u279_25
  1626  0E99                     i1l1926:
  1627  0E99  30FE               	movlw	254
  1628  0E9A  057D               	andwf	___xxtofl@arg+3,w
  1629  0E9B  1D03               	btfss	3,2
  1630  0E9C  2E9E               	goto	u280_21
  1631  0E9D  2E9F               	goto	u280_20
  1632  0E9E                     u280_21:
  1633  0E9E  2E8C               	goto	i1l1924
  1634  0E9F                     u280_20:
  1635  0E9F  2EBB               	goto	i1l625
  1636  0EA0                     i1l1928:
  1637  0EA0  3001               	movlw	1
  1638  0EA1  00F4               	movwf	??___xxtofl
  1639  0EA2  0874               	movf	??___xxtofl,w
  1640  0EA3  07F9               	addwf	___xxtofl@exp,f
  1641  0EA4                     i1l1930:
  1642  0EA4  3001               	movlw	1
  1643  0EA5  07FA               	addwf	___xxtofl@arg,f
  1644  0EA6  3000               	movlw	0
  1645  0EA7  1803               	skipnc
  1646  0EA8  3001               	movlw	1
  1647  0EA9  07FB               	addwf	___xxtofl@arg+1,f
  1648  0EAA  3000               	movlw	0
  1649  0EAB  1803               	skipnc
  1650  0EAC  3001               	movlw	1
  1651  0EAD  07FC               	addwf	___xxtofl@arg+2,f
  1652  0EAE  3000               	movlw	0
  1653  0EAF  1803               	skipnc
  1654  0EB0  3001               	movlw	1
  1655  0EB1  07FD               	addwf	___xxtofl@arg+3,f
  1656  0EB2                     i1l1932:
  1657  0EB2  3001               	movlw	1
  1658  0EB3                     u281_25:
  1659  0EB3  1003               	clrc
  1660  0EB4  0CFD               	rrf	___xxtofl@arg+3,f
  1661  0EB5  0CFC               	rrf	___xxtofl@arg+2,f
  1662  0EB6  0CFB               	rrf	___xxtofl@arg+1,f
  1663  0EB7  0CFA               	rrf	___xxtofl@arg,f
  1664  0EB8  3EFF               	addlw	-1
  1665  0EB9  1D03               	skipz
  1666  0EBA  2EB3               	goto	u281_25
  1667  0EBB                     i1l625:
  1668  0EBB  30FF               	movlw	255
  1669  0EBC  057D               	andwf	___xxtofl@arg+3,w
  1670  0EBD  1D03               	btfss	3,2
  1671  0EBE  2EC0               	goto	u282_21
  1672  0EBF  2EC1               	goto	u282_20
  1673  0EC0                     u282_21:
  1674  0EC0  2EA0               	goto	i1l1928
  1675  0EC1                     u282_20:
  1676  0EC1  2ECD               	goto	i1l1936
  1677  0EC2                     i1l1934:
  1678  0EC2  3001               	movlw	1
  1679  0EC3  02F9               	subwf	___xxtofl@exp,f
  1680  0EC4  3001               	movlw	1
  1681  0EC5  00F4               	movwf	??___xxtofl
  1682  0EC6                     u283_25:
  1683  0EC6  1003               	clrc
  1684  0EC7  0DFA               	rlf	___xxtofl@arg,f
  1685  0EC8  0DFB               	rlf	___xxtofl@arg+1,f
  1686  0EC9  0DFC               	rlf	___xxtofl@arg+2,f
  1687  0ECA  0DFD               	rlf	___xxtofl@arg+3,f
  1688  0ECB  0BF4               	decfsz	??___xxtofl,f
  1689  0ECC  2EC6               	goto	u283_25
  1690  0ECD                     i1l1936:
  1691  0ECD  1BFC               	btfsc	___xxtofl@arg+2,7
  1692  0ECE  2ED0               	goto	u284_21
  1693  0ECF  2ED1               	goto	u284_20
  1694  0ED0                     u284_21:
  1695  0ED0  2ED7               	goto	i1l632
  1696  0ED1                     u284_20:
  1697  0ED1                     i1l1938:
  1698  0ED1  3002               	movlw	2
  1699  0ED2  0279               	subwf	___xxtofl@exp,w
  1700  0ED3  1803               	skipnc
  1701  0ED4  2ED6               	goto	u285_21
  1702  0ED5  2ED7               	goto	u285_20
  1703  0ED6                     u285_21:
  1704  0ED6  2EC2               	goto	i1l1934
  1705  0ED7                     u285_20:
  1706  0ED7                     i1l632:
  1707  0ED7  1879               	btfsc	___xxtofl@exp,0
  1708  0ED8  2EDA               	goto	u286_21
  1709  0ED9  2EDB               	goto	u286_20
  1710  0EDA                     u286_21:
  1711  0EDA  2EE3               	goto	i1l633
  1712  0EDB                     u286_20:
  1713  0EDB                     i1l1940:
  1714  0EDB  30FF               	movlw	255
  1715  0EDC  05FA               	andwf	___xxtofl@arg,f
  1716  0EDD  30FF               	movlw	255
  1717  0EDE  05FB               	andwf	___xxtofl@arg+1,f
  1718  0EDF  307F               	movlw	127
  1719  0EE0  05FC               	andwf	___xxtofl@arg+2,f
  1720  0EE1  30FF               	movlw	255
  1721  0EE2  05FD               	andwf	___xxtofl@arg+3,f
  1722  0EE3                     i1l633:
  1723  0EE3  1003               	clrc
  1724  0EE4  0CF9               	rrf	___xxtofl@exp,f
  1725  0EE5                     i1l1942:
  1726  0EE5  0879               	movf	___xxtofl@exp,w
  1727  0EE6  00F4               	movwf	??___xxtofl
  1728  0EE7  01F5               	clrf	??___xxtofl+1
  1729  0EE8  01F6               	clrf	??___xxtofl+2
  1730  0EE9  01F7               	clrf	??___xxtofl+3
  1731  0EEA  3018               	movlw	24
  1732  0EEB                     u287_25:
  1733  0EEB  1003               	clrc
  1734  0EEC  0DF4               	rlf	??___xxtofl,f
  1735  0EED  0DF5               	rlf	??___xxtofl+1,f
  1736  0EEE  0DF6               	rlf	??___xxtofl+2,f
  1737  0EEF  0DF7               	rlf	??___xxtofl+3,f
  1738  0EF0                     u287_20:
  1739  0EF0  3EFF               	addlw	-1
  1740  0EF1  1D03               	skipz
  1741  0EF2  2EEB               	goto	u287_25
  1742  0EF3  0874               	movf	??___xxtofl,w
  1743  0EF4  04FA               	iorwf	___xxtofl@arg,f
  1744  0EF5  0875               	movf	??___xxtofl+1,w
  1745  0EF6  04FB               	iorwf	___xxtofl@arg+1,f
  1746  0EF7  0876               	movf	??___xxtofl+2,w
  1747  0EF8  04FC               	iorwf	___xxtofl@arg+2,f
  1748  0EF9  0877               	movf	??___xxtofl+3,w
  1749  0EFA  04FD               	iorwf	___xxtofl@arg+3,f
  1750  0EFB                     i1l1944:
  1751  0EFB  0878               	movf	___xxtofl@sign,w
  1752  0EFC  1903               	btfsc	3,2
  1753  0EFD  2EFF               	goto	u288_21
  1754  0EFE  2F00               	goto	u288_20
  1755  0EFF                     u288_21:
  1756  0EFF  2F05               	goto	i1l1950
  1757  0F00                     u288_20:
  1758  0F00                     i1l1946:
  1759  0F00  1FF3               	btfss	___xxtofl@val+3,7
  1760  0F01  2F03               	goto	u289_21
  1761  0F02  2F04               	goto	u289_20
  1762  0F03                     u289_21:
  1763  0F03  2F05               	goto	i1l1950
  1764  0F04                     u289_20:
  1765  0F04                     i1l1948:
  1766  0F04  17FD               	bsf	___xxtofl@arg+3,7
  1767  0F05                     i1l1950:
  1768  0F05  087D               	movf	___xxtofl@arg+3,w
  1769  0F06  00F3               	movwf	?___xxtofl+3
  1770  0F07  087C               	movf	___xxtofl@arg+2,w
  1771  0F08  00F2               	movwf	?___xxtofl+2
  1772  0F09  087B               	movf	___xxtofl@arg+1,w
  1773  0F0A  00F1               	movwf	?___xxtofl+1
  1774  0F0B  087A               	movf	___xxtofl@arg,w
  1775  0F0C  00F0               	movwf	?___xxtofl
  1776  0F0D                     i1l621:
  1777  0F0D  0008               	return
  1778  0F0E                     __end_of___xxtofl:
  1779                           
  1780                           	psect	text5
  1781  0D06                     __ptext5:	
  1782 ;; *************** function ___fltol *****************
  1783 ;; Defined at:
  1784 ;;		line 43 in file "C:\Program Files\Microchip\xc8\v2.35\pic\sources\c90\common\fltol.c"
  1785 ;; Parameters:    Size  Location     Type
  1786 ;;  f1              4   72[BANK0 ] unsigned char 
  1787 ;; Auto vars:     Size  Location     Type
  1788 ;;  exp1            1   77[BANK0 ] unsigned char 
  1789 ;;  sign1           1   76[BANK0 ] unsigned char 
  1790 ;; Return value:  Size  Location     Type
  1791 ;;                  4   72[BANK0 ] long 
  1792 ;; Registers used:
  1793 ;;		wreg, status,2, status,0
  1794 ;; Tracked objects:
  1795 ;;		On entry : 0/0
  1796 ;;		On exit  : 0/0
  1797 ;;		Unchanged: 0/0
  1798 ;; Data sizes:     COMMON   BANK0   BANK1   BANK3   BANK2
  1799 ;;      Params:         0       4       0       0       0
  1800 ;;      Locals:         0       2       0       0       0
  1801 ;;      Temps:          0       0       5       0       0
  1802 ;;      Totals:         0       6       5       0       0
  1803 ;;Total ram usage:       11 bytes
  1804 ;; Hardware stack levels used: 1
  1805 ;; This function calls:
  1806 ;;		Nothing
  1807 ;; This function is called by:
  1808 ;;		_map
  1809 ;; This function uses a non-reentrant model
  1810 ;;
  1811                           
  1812  0D06                     ___fltol:	
  1813                           ;psect for function ___fltol
  1814                           
  1815  0D06                     i1l1398:	
  1816                           ;incstack = 0
  1817                           ; Regs used in ___fltol: [wreg+status,2+status,0]
  1818                           
  1819  0D06  1003               	clrc
  1820  0D07  1283               	bcf	3,5	;RP0=0, select bank0
  1821  0D08  1303               	bcf	3,6	;RP1=0, select bank0
  1822  0D09  0D6A               	rlf	___fltol@f1+2,w
  1823  0D0A  0D6B               	rlf	___fltol@f1+3,w
  1824  0D0B  1683               	bsf	3,5	;RP0=1, select bank1
  1825  0D0C  1303               	bcf	3,6	;RP1=0, select bank1
  1826  0D0D  00A0               	movwf	??___fltol^(0+128)
  1827  0D0E  0820               	movf	??___fltol^(0+128),w
  1828  0D0F  1283               	bcf	3,5	;RP0=0, select bank0
  1829  0D10  1303               	bcf	3,6	;RP1=0, select bank0
  1830  0D11  00ED               	movwf	___fltol@exp1
  1831  0D12  086D               	movf	___fltol@exp1,w
  1832  0D13  1D03               	btfss	3,2
  1833  0D14  2D16               	goto	u154_21
  1834  0D15  2D17               	goto	u154_20
  1835  0D16                     u154_21:
  1836  0D16  2D20               	goto	i1l1404
  1837  0D17                     u154_20:
  1838  0D17                     i1l1400:
  1839  0D17  3000               	movlw	0
  1840  0D18  00EB               	movwf	?___fltol+3
  1841  0D19  3000               	movlw	0
  1842  0D1A  00EA               	movwf	?___fltol+2
  1843  0D1B  3000               	movlw	0
  1844  0D1C  00E9               	movwf	?___fltol+1
  1845  0D1D  3000               	movlw	0
  1846  0D1E  00E8               	movwf	?___fltol
  1847  0D1F  2DA1               	goto	i1l372
  1848  0D20                     i1l1404:
  1849  0D20  0868               	movf	___fltol@f1,w
  1850  0D21  1683               	bsf	3,5	;RP0=1, select bank1
  1851  0D22  1303               	bcf	3,6	;RP1=0, select bank1
  1852  0D23  00A0               	movwf	??___fltol^(0+128)
  1853  0D24  1283               	bcf	3,5	;RP0=0, select bank0
  1854  0D25  1303               	bcf	3,6	;RP1=0, select bank0
  1855  0D26  0869               	movf	___fltol@f1+1,w
  1856  0D27  1683               	bsf	3,5	;RP0=1, select bank1
  1857  0D28  1303               	bcf	3,6	;RP1=0, select bank1
  1858  0D29  00A1               	movwf	(??___fltol^(0+128)+1)
  1859  0D2A  1283               	bcf	3,5	;RP0=0, select bank0
  1860  0D2B  1303               	bcf	3,6	;RP1=0, select bank0
  1861  0D2C  086A               	movf	___fltol@f1+2,w
  1862  0D2D  1683               	bsf	3,5	;RP0=1, select bank1
  1863  0D2E  1303               	bcf	3,6	;RP1=0, select bank1
  1864  0D2F  00A2               	movwf	(??___fltol^(0+128)+2)
  1865  0D30  1283               	bcf	3,5	;RP0=0, select bank0
  1866  0D31  1303               	bcf	3,6	;RP1=0, select bank0
  1867  0D32  086B               	movf	___fltol@f1+3,w
  1868  0D33  1683               	bsf	3,5	;RP0=1, select bank1
  1869  0D34  1303               	bcf	3,6	;RP1=0, select bank1
  1870  0D35  00A3               	movwf	(??___fltol^(0+128)+3)
  1871  0D36  301F               	movlw	31
  1872  0D37                     u155_25:
  1873  0D37  1003               	clrc
  1874  0D38  0CA3               	rrf	(??___fltol^(0+128)+3),f
  1875  0D39  0CA2               	rrf	(??___fltol^(0+128)+2),f
  1876  0D3A  0CA1               	rrf	(??___fltol^(0+128)+1),f
  1877  0D3B  0CA0               	rrf	??___fltol^(0+128),f
  1878  0D3C                     u155_20:
  1879  0D3C  3EFF               	addlw	-1
  1880  0D3D  1D03               	skipz
  1881  0D3E  2D37               	goto	u155_25
  1882  0D3F  0820               	movf	??___fltol^(0+128),w
  1883  0D40  00A4               	movwf	(??___fltol+4)^(0+128)
  1884  0D41  0824               	movf	(??___fltol+4)^(0+128),w
  1885  0D42  1283               	bcf	3,5	;RP0=0, select bank0
  1886  0D43  1303               	bcf	3,6	;RP1=0, select bank0
  1887  0D44  00EC               	movwf	___fltol@sign1
  1888  0D45                     i1l1406:
  1889  0D45  17EA               	bsf	___fltol@f1+2,7
  1890  0D46                     i1l1408:
  1891  0D46  30FF               	movlw	255
  1892  0D47  05E8               	andwf	___fltol@f1,f
  1893  0D48  30FF               	movlw	255
  1894  0D49  05E9               	andwf	___fltol@f1+1,f
  1895  0D4A  30FF               	movlw	255
  1896  0D4B  05EA               	andwf	___fltol@f1+2,f
  1897  0D4C  3000               	movlw	0
  1898  0D4D  05EB               	andwf	___fltol@f1+3,f
  1899  0D4E                     i1l1410:
  1900  0D4E  3096               	movlw	150
  1901  0D4F  02ED               	subwf	___fltol@exp1,f
  1902  0D50                     i1l1412:
  1903  0D50  1FED               	btfss	___fltol@exp1,7
  1904  0D51  2D53               	goto	u156_21
  1905  0D52  2D54               	goto	u156_20
  1906  0D53                     u156_21:
  1907  0D53  2D72               	goto	i1l1422
  1908  0D54                     u156_20:
  1909  0D54                     i1l1414:
  1910  0D54  086D               	movf	___fltol@exp1,w
  1911  0D55  3A80               	xorlw	128
  1912  0D56  3E97               	addlw	151
  1913  0D57  1803               	skipnc
  1914  0D58  2D5A               	goto	u157_21
  1915  0D59  2D5B               	goto	u157_20
  1916  0D5A                     u157_21:
  1917  0D5A  2D5C               	goto	i1l1420
  1918  0D5B                     u157_20:
  1919  0D5B  2D17               	goto	i1l1400
  1920  0D5C                     i1l1420:
  1921  0D5C  3001               	movlw	1
  1922  0D5D                     u158_25:
  1923  0D5D  1003               	clrc
  1924  0D5E  0CEB               	rrf	___fltol@f1+3,f
  1925  0D5F  0CEA               	rrf	___fltol@f1+2,f
  1926  0D60  0CE9               	rrf	___fltol@f1+1,f
  1927  0D61  0CE8               	rrf	___fltol@f1,f
  1928  0D62  3EFF               	addlw	-1
  1929  0D63  1D03               	skipz
  1930  0D64  2D5D               	goto	u158_25
  1931  0D65  3001               	movlw	1
  1932  0D66  1683               	bsf	3,5	;RP0=1, select bank1
  1933  0D67  1303               	bcf	3,6	;RP1=0, select bank1
  1934  0D68  00A0               	movwf	??___fltol^(0+128)
  1935  0D69  0820               	movf	??___fltol^(0+128),w
  1936  0D6A  1283               	bcf	3,5	;RP0=0, select bank0
  1937  0D6B  1303               	bcf	3,6	;RP1=0, select bank0
  1938  0D6C  07ED               	addwf	___fltol@exp1,f
  1939  0D6D  1D03               	btfss	3,2
  1940  0D6E  2D70               	goto	u159_21
  1941  0D6F  2D71               	goto	u159_20
  1942  0D70                     u159_21:
  1943  0D70  2D5C               	goto	i1l1420
  1944  0D71                     u159_20:
  1945  0D71  2D91               	goto	i1l1430
  1946  0D72                     i1l1422:
  1947  0D72  3020               	movlw	32
  1948  0D73  026D               	subwf	___fltol@exp1,w
  1949  0D74  1C03               	skipc
  1950  0D75  2D77               	goto	u160_21
  1951  0D76  2D78               	goto	u160_20
  1952  0D77                     u160_21:
  1953  0D77  2D8C               	goto	i1l379
  1954  0D78                     u160_20:
  1955  0D78  2D17               	goto	i1l1400
  1956  0D79                     i1l1428:
  1957  0D79  3001               	movlw	1
  1958  0D7A  1683               	bsf	3,5	;RP0=1, select bank1
  1959  0D7B  1303               	bcf	3,6	;RP1=0, select bank1
  1960  0D7C  00A0               	movwf	??___fltol^(0+128)
  1961  0D7D                     u161_25:
  1962  0D7D  1003               	clrc
  1963  0D7E  1283               	bcf	3,5	;RP0=0, select bank0
  1964  0D7F  1303               	bcf	3,6	;RP1=0, select bank0
  1965  0D80  0DE8               	rlf	___fltol@f1,f
  1966  0D81  0DE9               	rlf	___fltol@f1+1,f
  1967  0D82  0DEA               	rlf	___fltol@f1+2,f
  1968  0D83  0DEB               	rlf	___fltol@f1+3,f
  1969  0D84  1683               	bsf	3,5	;RP0=1, select bank1
  1970  0D85  1303               	bcf	3,6	;RP1=0, select bank1
  1971  0D86  0BA0               	decfsz	??___fltol^(0+128),f
  1972  0D87  2D7D               	goto	u161_25
  1973  0D88  3001               	movlw	1
  1974  0D89  1283               	bcf	3,5	;RP0=0, select bank0
  1975  0D8A  1303               	bcf	3,6	;RP1=0, select bank0
  1976  0D8B  02ED               	subwf	___fltol@exp1,f
  1977  0D8C                     i1l379:
  1978  0D8C  086D               	movf	___fltol@exp1,w
  1979  0D8D  1D03               	btfss	3,2
  1980  0D8E  2D90               	goto	u162_21
  1981  0D8F  2D91               	goto	u162_20
  1982  0D90                     u162_21:
  1983  0D90  2D79               	goto	i1l1428
  1984  0D91                     u162_20:
  1985  0D91                     i1l1430:
  1986  0D91  086C               	movf	___fltol@sign1,w
  1987  0D92  1903               	btfsc	3,2
  1988  0D93  2D95               	goto	u163_21
  1989  0D94  2D96               	goto	u163_20
  1990  0D95                     u163_21:
  1991  0D95  2DA1               	goto	i1l382
  1992  0D96                     u163_20:
  1993  0D96                     i1l1432:
  1994  0D96  09E8               	comf	___fltol@f1,f
  1995  0D97  09E9               	comf	___fltol@f1+1,f
  1996  0D98  09EA               	comf	___fltol@f1+2,f
  1997  0D99  09EB               	comf	___fltol@f1+3,f
  1998  0D9A  0AE8               	incf	___fltol@f1,f
  1999  0D9B  1903               	skipnz
  2000  0D9C  0AE9               	incf	___fltol@f1+1,f
  2001  0D9D  1903               	skipnz
  2002  0D9E  0AEA               	incf	___fltol@f1+2,f
  2003  0D9F  1903               	skipnz
  2004  0DA0  0AEB               	incf	___fltol@f1+3,f
  2005  0DA1                     i1l382:
  2006  0DA1                     i1l372:
  2007  0DA1  0008               	return
  2008  0DA2                     __end_of___fltol:
  2009                           
  2010                           	psect	text6
  2011  0020                     __ptext6:	
  2012 ;; *************** function ___flmul *****************
  2013 ;; Defined at:
  2014 ;;		line 8 in file "C:\Program Files\Microchip\xc8\v2.35\pic\sources\c90\common\sprcmul.c"
  2015 ;; Parameters:    Size  Location     Type
  2016 ;;  b               4   26[BANK0 ] long 
  2017 ;;  a               4   30[BANK0 ] long 
  2018 ;; Auto vars:     Size  Location     Type
  2019 ;;  prod            4   46[BANK0 ] struct .
  2020 ;;  grs             4   40[BANK0 ] unsigned long 
  2021 ;;  temp            2   50[BANK0 ] struct .
  2022 ;;  bexp            1   45[BANK0 ] unsigned char 
  2023 ;;  aexp            1   44[BANK0 ] unsigned char 
  2024 ;;  sign            1   39[BANK0 ] unsigned char 
  2025 ;; Return value:  Size  Location     Type
  2026 ;;                  4   26[BANK0 ] unsigned char 
  2027 ;; Registers used:
  2028 ;;		wreg, status,2, status,0, btemp+1, pclath, cstack
  2029 ;; Tracked objects:
  2030 ;;		On entry : 0/0
  2031 ;;		On exit  : 0/0
  2032 ;;		Unchanged: 0/0
  2033 ;; Data sizes:     COMMON   BANK0   BANK1   BANK3   BANK2
  2034 ;;      Params:         0       8       0       0       0
  2035 ;;      Locals:         0      13       0       0       0
  2036 ;;      Temps:          0       5       0       0       0
  2037 ;;      Totals:         0      26       0       0       0
  2038 ;;Total ram usage:       26 bytes
  2039 ;; Hardware stack levels used: 1
  2040 ;; Hardware stack levels required when called: 1
  2041 ;; This function calls:
  2042 ;;		__Umul8_16
  2043 ;; This function is called by:
  2044 ;;		_map
  2045 ;; This function uses a non-reentrant model
  2046 ;;
  2047                           
  2048  0020                     ___flmul:	
  2049                           ;psect for function ___flmul
  2050                           
  2051  0020                     i1l1770:	
  2052                           ;incstack = 0
  2053                           ; Regs used in ___flmul: [wreg+status,2+status,0+btemp+1+pclath+cstack]
  2054                           
  2055  0020  1283               	bcf	3,5	;RP0=0, select bank0
  2056  0021  1303               	bcf	3,6	;RP1=0, select bank0
  2057  0022  083D               	movf	___flmul@b+3,w
  2058  0023  3980               	andlw	128
  2059  0024  00C2               	movwf	??___flmul
  2060  0025  0842               	movf	??___flmul,w
  2061  0026  00C7               	movwf	___flmul@sign
  2062  0027                     i1l1772:
  2063  0027  083D               	movf	___flmul@b+3,w
  2064  0028  00C2               	movwf	??___flmul
  2065  0029  0742               	addwf	??___flmul,w
  2066  002A  00C3               	movwf	??___flmul+1
  2067  002B  0843               	movf	??___flmul+1,w
  2068  002C  00CD               	movwf	___flmul@bexp
  2069  002D                     i1l1774:
  2070  002D  1FBC               	btfss	___flmul@b+2,7
  2071  002E  2830               	goto	u239_21
  2072  002F  2831               	goto	u239_20
  2073  0030                     u239_21:
  2074  0030  2832               	goto	i1l1778
  2075  0031                     u239_20:
  2076  0031                     i1l1776:
  2077  0031  144D               	bsf	___flmul@bexp,0
  2078  0032                     i1l1778:
  2079  0032  084D               	movf	___flmul@bexp,w
  2080  0033  1903               	btfsc	3,2
  2081  0034  2836               	goto	u240_21
  2082  0035  2837               	goto	u240_20
  2083  0036                     u240_21:
  2084  0036  2846               	goto	i1l1786
  2085  0037                     u240_20:
  2086  0037                     i1l1780:
  2087  0037  0A4D               	incf	___flmul@bexp,w
  2088  0038  1D03               	btfss	3,2
  2089  0039  283B               	goto	u241_21
  2090  003A  283C               	goto	u241_20
  2091  003B                     u241_21:
  2092  003B  2844               	goto	i1l1784
  2093  003C                     u241_20:
  2094  003C                     i1l1782:
  2095  003C  3000               	movlw	0
  2096  003D  00BD               	movwf	___flmul@b+3
  2097  003E  3000               	movlw	0
  2098  003F  00BC               	movwf	___flmul@b+2
  2099  0040  3000               	movlw	0
  2100  0041  00BB               	movwf	___flmul@b+1
  2101  0042  3000               	movlw	0
  2102  0043  00BA               	movwf	___flmul@b
  2103  0044                     i1l1784:
  2104  0044  17BC               	bsf	___flmul@b+2,7
  2105  0045  284E               	goto	i1l1788
  2106  0046                     i1l1786:
  2107  0046  3000               	movlw	0
  2108  0047  00BD               	movwf	___flmul@b+3
  2109  0048  3000               	movlw	0
  2110  0049  00BC               	movwf	___flmul@b+2
  2111  004A  3000               	movlw	0
  2112  004B  00BB               	movwf	___flmul@b+1
  2113  004C  3000               	movlw	0
  2114  004D  00BA               	movwf	___flmul@b
  2115  004E                     i1l1788:
  2116  004E  0841               	movf	___flmul@a+3,w
  2117  004F  3980               	andlw	128
  2118  0050  00C2               	movwf	??___flmul
  2119  0051  0842               	movf	??___flmul,w
  2120  0052  06C7               	xorwf	___flmul@sign,f
  2121  0053                     i1l1790:
  2122  0053  0841               	movf	___flmul@a+3,w
  2123  0054  00C2               	movwf	??___flmul
  2124  0055  0742               	addwf	??___flmul,w
  2125  0056  00C3               	movwf	??___flmul+1
  2126  0057  0843               	movf	??___flmul+1,w
  2127  0058  00CC               	movwf	___flmul@aexp
  2128  0059                     i1l1792:
  2129  0059  1FC0               	btfss	___flmul@a+2,7
  2130  005A  285C               	goto	u242_21
  2131  005B  285D               	goto	u242_20
  2132  005C                     u242_21:
  2133  005C  285E               	goto	i1l1796
  2134  005D                     u242_20:
  2135  005D                     i1l1794:
  2136  005D  144C               	bsf	___flmul@aexp,0
  2137  005E                     i1l1796:
  2138  005E  084C               	movf	___flmul@aexp,w
  2139  005F  1903               	btfsc	3,2
  2140  0060  2862               	goto	u243_21
  2141  0061  2863               	goto	u243_20
  2142  0062                     u243_21:
  2143  0062  2872               	goto	i1l1804
  2144  0063                     u243_20:
  2145  0063                     i1l1798:
  2146  0063  0A4C               	incf	___flmul@aexp,w
  2147  0064  1D03               	btfss	3,2
  2148  0065  2867               	goto	u244_21
  2149  0066  2868               	goto	u244_20
  2150  0067                     u244_21:
  2151  0067  2870               	goto	i1l1802
  2152  0068                     u244_20:
  2153  0068                     i1l1800:
  2154  0068  3000               	movlw	0
  2155  0069  00C1               	movwf	___flmul@a+3
  2156  006A  3000               	movlw	0
  2157  006B  00C0               	movwf	___flmul@a+2
  2158  006C  3000               	movlw	0
  2159  006D  00BF               	movwf	___flmul@a+1
  2160  006E  3000               	movlw	0
  2161  006F  00BE               	movwf	___flmul@a
  2162  0070                     i1l1802:
  2163  0070  17C0               	bsf	___flmul@a+2,7
  2164  0071  287A               	goto	i1l1806
  2165  0072                     i1l1804:
  2166  0072  3000               	movlw	0
  2167  0073  00C1               	movwf	___flmul@a+3
  2168  0074  3000               	movlw	0
  2169  0075  00C0               	movwf	___flmul@a+2
  2170  0076  3000               	movlw	0
  2171  0077  00BF               	movwf	___flmul@a+1
  2172  0078  3000               	movlw	0
  2173  0079  00BE               	movwf	___flmul@a
  2174  007A                     i1l1806:
  2175  007A  084C               	movf	___flmul@aexp,w
  2176  007B  1903               	btfsc	3,2
  2177  007C  287E               	goto	u245_21
  2178  007D  287F               	goto	u245_20
  2179  007E                     u245_21:
  2180  007E  2884               	goto	i1l1810
  2181  007F                     u245_20:
  2182  007F                     i1l1808:
  2183  007F  084D               	movf	___flmul@bexp,w
  2184  0080  1D03               	btfss	3,2
  2185  0081  2883               	goto	u246_21
  2186  0082  2884               	goto	u246_20
  2187  0083                     u246_21:
  2188  0083  288D               	goto	i1l1814
  2189  0084                     u246_20:
  2190  0084                     i1l1810:
  2191  0084  3000               	movlw	0
  2192  0085  00BD               	movwf	?___flmul+3
  2193  0086  3000               	movlw	0
  2194  0087  00BC               	movwf	?___flmul+2
  2195  0088  3000               	movlw	0
  2196  0089  00BB               	movwf	?___flmul+1
  2197  008A  3000               	movlw	0
  2198  008B  00BA               	movwf	?___flmul
  2199  008C  2B80               	goto	i1l575
  2200  008D                     i1l1814:
  2201  008D  083A               	movf	___flmul@b,w
  2202  008E  00C2               	movwf	??___flmul
  2203  008F  0842               	movf	??___flmul,w
  2204  0090  00F0               	movwf	__Umul8_16@multiplicand
  2205  0091  0840               	movf	___flmul@a+2,w
  2206  0092  120A  158A  2421  120A  118A  	fcall	__Umul8_16
  2207  0097  0871               	movf	?__Umul8_16+1,w
  2208  0098  1283               	bcf	3,5	;RP0=0, select bank0
  2209  0099  1303               	bcf	3,6	;RP1=0, select bank0
  2210  009A  00D3               	movwf	___flmul@temp+1
  2211  009B  0870               	movf	?__Umul8_16,w
  2212  009C  00D2               	movwf	___flmul@temp
  2213  009D                     i1l1816:
  2214  009D  0852               	movf	___flmul@temp,w
  2215  009E  00C2               	movwf	??___flmul
  2216  009F  01C3               	clrf	??___flmul+1
  2217  00A0  01C4               	clrf	??___flmul+2
  2218  00A1  01C5               	clrf	??___flmul+3
  2219  00A2  0845               	movf	??___flmul+3,w
  2220  00A3  00CB               	movwf	___flmul@grs+3
  2221  00A4  0844               	movf	??___flmul+2,w
  2222  00A5  00CA               	movwf	___flmul@grs+2
  2223  00A6  0843               	movf	??___flmul+1,w
  2224  00A7  00C9               	movwf	___flmul@grs+1
  2225  00A8  0842               	movf	??___flmul,w
  2226  00A9  00C8               	movwf	___flmul@grs
  2227  00AA                     i1l1818:
  2228  00AA  0853               	movf	___flmul@temp+1,w
  2229  00AB  00C2               	movwf	??___flmul
  2230  00AC  01C3               	clrf	??___flmul+1
  2231  00AD  01C4               	clrf	??___flmul+2
  2232  00AE  01C5               	clrf	??___flmul+3
  2233  00AF  0845               	movf	??___flmul+3,w
  2234  00B0  00D1               	movwf	___flmul@prod+3
  2235  00B1  0844               	movf	??___flmul+2,w
  2236  00B2  00D0               	movwf	___flmul@prod+2
  2237  00B3  0843               	movf	??___flmul+1,w
  2238  00B4  00CF               	movwf	___flmul@prod+1
  2239  00B5  0842               	movf	??___flmul,w
  2240  00B6  00CE               	movwf	___flmul@prod
  2241  00B7  083B               	movf	___flmul@b+1,w
  2242  00B8  00C2               	movwf	??___flmul
  2243  00B9  0842               	movf	??___flmul,w
  2244  00BA  00F0               	movwf	__Umul8_16@multiplicand
  2245  00BB  083F               	movf	___flmul@a+1,w
  2246  00BC  120A  158A  2421  120A  118A  	fcall	__Umul8_16
  2247  00C1  0871               	movf	?__Umul8_16+1,w
  2248  00C2  1283               	bcf	3,5	;RP0=0, select bank0
  2249  00C3  1303               	bcf	3,6	;RP1=0, select bank0
  2250  00C4  00D3               	movwf	___flmul@temp+1
  2251  00C5  0870               	movf	?__Umul8_16,w
  2252  00C6  00D2               	movwf	___flmul@temp
  2253  00C7                     i1l1820:
  2254  00C7  0852               	movf	___flmul@temp,w
  2255  00C8  00C2               	movwf	??___flmul
  2256  00C9  01C3               	clrf	??___flmul+1
  2257  00CA  01C4               	clrf	??___flmul+2
  2258  00CB  01C5               	clrf	??___flmul+3
  2259  00CC  0842               	movf	??___flmul,w
  2260  00CD  07C8               	addwf	___flmul@grs,f
  2261  00CE  0843               	movf	??___flmul+1,w
  2262  00CF  1103               	clrz
  2263  00D0  1803               	skipnc
  2264  00D1  3E01               	addlw	1
  2265  00D2  1903               	skipnz
  2266  00D3  28D5               	goto	u247_21
  2267  00D4  07C9               	addwf	___flmul@grs+1,f
  2268  00D5                     u247_21:
  2269  00D5  0844               	movf	??___flmul+2,w
  2270  00D6  1103               	clrz
  2271  00D7  1803               	skipnc
  2272  00D8  3E01               	addlw	1
  2273  00D9  1903               	skipnz
  2274  00DA  28DC               	goto	u247_22
  2275  00DB  07CA               	addwf	___flmul@grs+2,f
  2276  00DC                     u247_22:
  2277  00DC  0845               	movf	??___flmul+3,w
  2278  00DD  1103               	clrz
  2279  00DE  1803               	skipnc
  2280  00DF  3E01               	addlw	1
  2281  00E0  1903               	skipnz
  2282  00E1  28E3               	goto	u247_23
  2283  00E2  07CB               	addwf	___flmul@grs+3,f
  2284  00E3                     u247_23:
  2285  00E3                     i1l1822:
  2286  00E3  0853               	movf	___flmul@temp+1,w
  2287  00E4  00C2               	movwf	??___flmul
  2288  00E5  01C3               	clrf	??___flmul+1
  2289  00E6  01C4               	clrf	??___flmul+2
  2290  00E7  01C5               	clrf	??___flmul+3
  2291  00E8  0842               	movf	??___flmul,w
  2292  00E9  07CE               	addwf	___flmul@prod,f
  2293  00EA  0843               	movf	??___flmul+1,w
  2294  00EB  1103               	clrz
  2295  00EC  1803               	skipnc
  2296  00ED  3E01               	addlw	1
  2297  00EE  1903               	skipnz
  2298  00EF  28F1               	goto	u248_21
  2299  00F0  07CF               	addwf	___flmul@prod+1,f
  2300  00F1                     u248_21:
  2301  00F1  0844               	movf	??___flmul+2,w
  2302  00F2  1103               	clrz
  2303  00F3  1803               	skipnc
  2304  00F4  3E01               	addlw	1
  2305  00F5  1903               	skipnz
  2306  00F6  28F8               	goto	u248_22
  2307  00F7  07D0               	addwf	___flmul@prod+2,f
  2308  00F8                     u248_22:
  2309  00F8  0845               	movf	??___flmul+3,w
  2310  00F9  1103               	clrz
  2311  00FA  1803               	skipnc
  2312  00FB  3E01               	addlw	1
  2313  00FC  1903               	skipnz
  2314  00FD  28FF               	goto	u248_23
  2315  00FE  07D1               	addwf	___flmul@prod+3,f
  2316  00FF                     u248_23:
  2317  00FF  083C               	movf	___flmul@b+2,w
  2318  0100  00C2               	movwf	??___flmul
  2319  0101  0842               	movf	??___flmul,w
  2320  0102  00F0               	movwf	__Umul8_16@multiplicand
  2321  0103  083E               	movf	___flmul@a,w
  2322  0104  120A  158A  2421  120A  118A  	fcall	__Umul8_16
  2323  0109  0871               	movf	?__Umul8_16+1,w
  2324  010A  1283               	bcf	3,5	;RP0=0, select bank0
  2325  010B  1303               	bcf	3,6	;RP1=0, select bank0
  2326  010C  00D3               	movwf	___flmul@temp+1
  2327  010D  0870               	movf	?__Umul8_16,w
  2328  010E  00D2               	movwf	___flmul@temp
  2329  010F                     i1l1824:
  2330  010F  0852               	movf	___flmul@temp,w
  2331  0110  00C2               	movwf	??___flmul
  2332  0111  01C3               	clrf	??___flmul+1
  2333  0112  01C4               	clrf	??___flmul+2
  2334  0113  01C5               	clrf	??___flmul+3
  2335  0114  0842               	movf	??___flmul,w
  2336  0115  07C8               	addwf	___flmul@grs,f
  2337  0116  0843               	movf	??___flmul+1,w
  2338  0117  1103               	clrz
  2339  0118  1803               	skipnc
  2340  0119  3E01               	addlw	1
  2341  011A  1903               	skipnz
  2342  011B  291D               	goto	u249_21
  2343  011C  07C9               	addwf	___flmul@grs+1,f
  2344  011D                     u249_21:
  2345  011D  0844               	movf	??___flmul+2,w
  2346  011E  1103               	clrz
  2347  011F  1803               	skipnc
  2348  0120  3E01               	addlw	1
  2349  0121  1903               	skipnz
  2350  0122  2924               	goto	u249_22
  2351  0123  07CA               	addwf	___flmul@grs+2,f
  2352  0124                     u249_22:
  2353  0124  0845               	movf	??___flmul+3,w
  2354  0125  1103               	clrz
  2355  0126  1803               	skipnc
  2356  0127  3E01               	addlw	1
  2357  0128  1903               	skipnz
  2358  0129  292B               	goto	u249_23
  2359  012A  07CB               	addwf	___flmul@grs+3,f
  2360  012B                     u249_23:
  2361  012B                     i1l1826:
  2362  012B  0853               	movf	___flmul@temp+1,w
  2363  012C  00C2               	movwf	??___flmul
  2364  012D  01C3               	clrf	??___flmul+1
  2365  012E  01C4               	clrf	??___flmul+2
  2366  012F  01C5               	clrf	??___flmul+3
  2367  0130  0842               	movf	??___flmul,w
  2368  0131  07CE               	addwf	___flmul@prod,f
  2369  0132  0843               	movf	??___flmul+1,w
  2370  0133  1103               	clrz
  2371  0134  1803               	skipnc
  2372  0135  3E01               	addlw	1
  2373  0136  1903               	skipnz
  2374  0137  2939               	goto	u250_21
  2375  0138  07CF               	addwf	___flmul@prod+1,f
  2376  0139                     u250_21:
  2377  0139  0844               	movf	??___flmul+2,w
  2378  013A  1103               	clrz
  2379  013B  1803               	skipnc
  2380  013C  3E01               	addlw	1
  2381  013D  1903               	skipnz
  2382  013E  2940               	goto	u250_22
  2383  013F  07D0               	addwf	___flmul@prod+2,f
  2384  0140                     u250_22:
  2385  0140  0845               	movf	??___flmul+3,w
  2386  0141  1103               	clrz
  2387  0142  1803               	skipnc
  2388  0143  3E01               	addlw	1
  2389  0144  1903               	skipnz
  2390  0145  2947               	goto	u250_23
  2391  0146  07D1               	addwf	___flmul@prod+3,f
  2392  0147                     u250_23:
  2393  0147                     i1l1828:
  2394  0147  3008               	movlw	8
  2395  0148  00C2               	movwf	??___flmul
  2396  0149                     u251_25:
  2397  0149  1003               	clrc
  2398  014A  0DC8               	rlf	___flmul@grs,f
  2399  014B  0DC9               	rlf	___flmul@grs+1,f
  2400  014C  0DCA               	rlf	___flmul@grs+2,f
  2401  014D  0DCB               	rlf	___flmul@grs+3,f
  2402  014E  0BC2               	decfsz	??___flmul,f
  2403  014F  2949               	goto	u251_25
  2404  0150                     i1l1830:
  2405  0150  083B               	movf	___flmul@b+1,w
  2406  0151  00C2               	movwf	??___flmul
  2407  0152  0842               	movf	??___flmul,w
  2408  0153  00F0               	movwf	__Umul8_16@multiplicand
  2409  0154  083E               	movf	___flmul@a,w
  2410  0155  120A  158A  2421  120A  118A  	fcall	__Umul8_16
  2411  015A  0871               	movf	?__Umul8_16+1,w
  2412  015B  1283               	bcf	3,5	;RP0=0, select bank0
  2413  015C  1303               	bcf	3,6	;RP1=0, select bank0
  2414  015D  00D3               	movwf	___flmul@temp+1
  2415  015E  0870               	movf	?__Umul8_16,w
  2416  015F  00D2               	movwf	___flmul@temp
  2417  0160                     i1l1832:
  2418  0160  0852               	movf	___flmul@temp,w
  2419  0161  00C2               	movwf	??___flmul
  2420  0162  0853               	movf	___flmul@temp+1,w
  2421  0163  00C3               	movwf	??___flmul+1
  2422  0164  01C4               	clrf	??___flmul+2
  2423  0165  01C5               	clrf	??___flmul+3
  2424  0166  0842               	movf	??___flmul,w
  2425  0167  07C8               	addwf	___flmul@grs,f
  2426  0168  0843               	movf	??___flmul+1,w
  2427  0169  1103               	clrz
  2428  016A  1803               	skipnc
  2429  016B  3E01               	addlw	1
  2430  016C  1903               	skipnz
  2431  016D  296F               	goto	u252_21
  2432  016E  07C9               	addwf	___flmul@grs+1,f
  2433  016F                     u252_21:
  2434  016F  0844               	movf	??___flmul+2,w
  2435  0170  1103               	clrz
  2436  0171  1803               	skipnc
  2437  0172  3E01               	addlw	1
  2438  0173  1903               	skipnz
  2439  0174  2976               	goto	u252_22
  2440  0175  07CA               	addwf	___flmul@grs+2,f
  2441  0176                     u252_22:
  2442  0176  0845               	movf	??___flmul+3,w
  2443  0177  1103               	clrz
  2444  0178  1803               	skipnc
  2445  0179  3E01               	addlw	1
  2446  017A  1903               	skipnz
  2447  017B  297D               	goto	u252_23
  2448  017C  07CB               	addwf	___flmul@grs+3,f
  2449  017D                     u252_23:
  2450  017D                     i1l1834:
  2451  017D  083A               	movf	___flmul@b,w
  2452  017E  00C2               	movwf	??___flmul
  2453  017F  0842               	movf	??___flmul,w
  2454  0180  00F0               	movwf	__Umul8_16@multiplicand
  2455  0181  083F               	movf	___flmul@a+1,w
  2456  0182  120A  158A  2421  120A  118A  	fcall	__Umul8_16
  2457  0187  0871               	movf	?__Umul8_16+1,w
  2458  0188  1283               	bcf	3,5	;RP0=0, select bank0
  2459  0189  1303               	bcf	3,6	;RP1=0, select bank0
  2460  018A  00D3               	movwf	___flmul@temp+1
  2461  018B  0870               	movf	?__Umul8_16,w
  2462  018C  00D2               	movwf	___flmul@temp
  2463  018D                     i1l1836:
  2464  018D  0852               	movf	___flmul@temp,w
  2465  018E  00C2               	movwf	??___flmul
  2466  018F  0853               	movf	___flmul@temp+1,w
  2467  0190  00C3               	movwf	??___flmul+1
  2468  0191  01C4               	clrf	??___flmul+2
  2469  0192  01C5               	clrf	??___flmul+3
  2470  0193  0842               	movf	??___flmul,w
  2471  0194  07C8               	addwf	___flmul@grs,f
  2472  0195  0843               	movf	??___flmul+1,w
  2473  0196  1103               	clrz
  2474  0197  1803               	skipnc
  2475  0198  3E01               	addlw	1
  2476  0199  1903               	skipnz
  2477  019A  299C               	goto	u253_21
  2478  019B  07C9               	addwf	___flmul@grs+1,f
  2479  019C                     u253_21:
  2480  019C  0844               	movf	??___flmul+2,w
  2481  019D  1103               	clrz
  2482  019E  1803               	skipnc
  2483  019F  3E01               	addlw	1
  2484  01A0  1903               	skipnz
  2485  01A1  29A3               	goto	u253_22
  2486  01A2  07CA               	addwf	___flmul@grs+2,f
  2487  01A3                     u253_22:
  2488  01A3  0845               	movf	??___flmul+3,w
  2489  01A4  1103               	clrz
  2490  01A5  1803               	skipnc
  2491  01A6  3E01               	addlw	1
  2492  01A7  1903               	skipnz
  2493  01A8  29AA               	goto	u253_23
  2494  01A9  07CB               	addwf	___flmul@grs+3,f
  2495  01AA                     u253_23:
  2496  01AA                     i1l1838:
  2497  01AA  3008               	movlw	8
  2498  01AB  00C2               	movwf	??___flmul
  2499  01AC                     u254_25:
  2500  01AC  1003               	clrc
  2501  01AD  0DC8               	rlf	___flmul@grs,f
  2502  01AE  0DC9               	rlf	___flmul@grs+1,f
  2503  01AF  0DCA               	rlf	___flmul@grs+2,f
  2504  01B0  0DCB               	rlf	___flmul@grs+3,f
  2505  01B1  0BC2               	decfsz	??___flmul,f
  2506  01B2  29AC               	goto	u254_25
  2507  01B3  083A               	movf	___flmul@b,w
  2508  01B4  00C2               	movwf	??___flmul
  2509  01B5  0842               	movf	??___flmul,w
  2510  01B6  00F0               	movwf	__Umul8_16@multiplicand
  2511  01B7  083E               	movf	___flmul@a,w
  2512  01B8  120A  158A  2421  120A  118A  	fcall	__Umul8_16
  2513  01BD  0871               	movf	?__Umul8_16+1,w
  2514  01BE  1283               	bcf	3,5	;RP0=0, select bank0
  2515  01BF  1303               	bcf	3,6	;RP1=0, select bank0
  2516  01C0  00D3               	movwf	___flmul@temp+1
  2517  01C1  0870               	movf	?__Umul8_16,w
  2518  01C2  00D2               	movwf	___flmul@temp
  2519  01C3                     i1l1840:
  2520  01C3  0852               	movf	___flmul@temp,w
  2521  01C4  00C2               	movwf	??___flmul
  2522  01C5  0853               	movf	___flmul@temp+1,w
  2523  01C6  00C3               	movwf	??___flmul+1
  2524  01C7  01C4               	clrf	??___flmul+2
  2525  01C8  01C5               	clrf	??___flmul+3
  2526  01C9  0842               	movf	??___flmul,w
  2527  01CA  07C8               	addwf	___flmul@grs,f
  2528  01CB  0843               	movf	??___flmul+1,w
  2529  01CC  1103               	clrz
  2530  01CD  1803               	skipnc
  2531  01CE  3E01               	addlw	1
  2532  01CF  1903               	skipnz
  2533  01D0  29D2               	goto	u255_21
  2534  01D1  07C9               	addwf	___flmul@grs+1,f
  2535  01D2                     u255_21:
  2536  01D2  0844               	movf	??___flmul+2,w
  2537  01D3  1103               	clrz
  2538  01D4  1803               	skipnc
  2539  01D5  3E01               	addlw	1
  2540  01D6  1903               	skipnz
  2541  01D7  29D9               	goto	u255_22
  2542  01D8  07CA               	addwf	___flmul@grs+2,f
  2543  01D9                     u255_22:
  2544  01D9  0845               	movf	??___flmul+3,w
  2545  01DA  1103               	clrz
  2546  01DB  1803               	skipnc
  2547  01DC  3E01               	addlw	1
  2548  01DD  1903               	skipnz
  2549  01DE  29E0               	goto	u255_23
  2550  01DF  07CB               	addwf	___flmul@grs+3,f
  2551  01E0                     u255_23:
  2552  01E0                     i1l1842:
  2553  01E0  083B               	movf	___flmul@b+1,w
  2554  01E1  00C2               	movwf	??___flmul
  2555  01E2  0842               	movf	??___flmul,w
  2556  01E3  00F0               	movwf	__Umul8_16@multiplicand
  2557  01E4  0840               	movf	___flmul@a+2,w
  2558  01E5  120A  158A  2421  120A  118A  	fcall	__Umul8_16
  2559  01EA  0871               	movf	?__Umul8_16+1,w
  2560  01EB  1283               	bcf	3,5	;RP0=0, select bank0
  2561  01EC  1303               	bcf	3,6	;RP1=0, select bank0
  2562  01ED  00D3               	movwf	___flmul@temp+1
  2563  01EE  0870               	movf	?__Umul8_16,w
  2564  01EF  00D2               	movwf	___flmul@temp
  2565  01F0  0852               	movf	___flmul@temp,w
  2566  01F1  00C2               	movwf	??___flmul
  2567  01F2  0853               	movf	___flmul@temp+1,w
  2568  01F3  00C3               	movwf	??___flmul+1
  2569  01F4  01C4               	clrf	??___flmul+2
  2570  01F5  01C5               	clrf	??___flmul+3
  2571  01F6  0842               	movf	??___flmul,w
  2572  01F7  07CE               	addwf	___flmul@prod,f
  2573  01F8  0843               	movf	??___flmul+1,w
  2574  01F9  1103               	clrz
  2575  01FA  1803               	skipnc
  2576  01FB  3E01               	addlw	1
  2577  01FC  1903               	skipnz
  2578  01FD  29FF               	goto	u256_21
  2579  01FE  07CF               	addwf	___flmul@prod+1,f
  2580  01FF                     u256_21:
  2581  01FF  0844               	movf	??___flmul+2,w
  2582  0200  1103               	clrz
  2583  0201  1803               	skipnc
  2584  0202  3E01               	addlw	1
  2585  0203  1903               	skipnz
  2586  0204  2A06               	goto	u256_22
  2587  0205  07D0               	addwf	___flmul@prod+2,f
  2588  0206                     u256_22:
  2589  0206  0845               	movf	??___flmul+3,w
  2590  0207  1103               	clrz
  2591  0208  1803               	skipnc
  2592  0209  3E01               	addlw	1
  2593  020A  1903               	skipnz
  2594  020B  2A0D               	goto	u256_23
  2595  020C  07D1               	addwf	___flmul@prod+3,f
  2596  020D                     u256_23:
  2597  020D                     i1l1844:
  2598  020D  083C               	movf	___flmul@b+2,w
  2599  020E  00C2               	movwf	??___flmul
  2600  020F  0842               	movf	??___flmul,w
  2601  0210  00F0               	movwf	__Umul8_16@multiplicand
  2602  0211  083F               	movf	___flmul@a+1,w
  2603  0212  120A  158A  2421  120A  118A  	fcall	__Umul8_16
  2604  0217  0871               	movf	?__Umul8_16+1,w
  2605  0218  1283               	bcf	3,5	;RP0=0, select bank0
  2606  0219  1303               	bcf	3,6	;RP1=0, select bank0
  2607  021A  00D3               	movwf	___flmul@temp+1
  2608  021B  0870               	movf	?__Umul8_16,w
  2609  021C  00D2               	movwf	___flmul@temp
  2610  021D                     i1l1846:
  2611  021D  0852               	movf	___flmul@temp,w
  2612  021E  00C2               	movwf	??___flmul
  2613  021F  0853               	movf	___flmul@temp+1,w
  2614  0220  00C3               	movwf	??___flmul+1
  2615  0221  01C4               	clrf	??___flmul+2
  2616  0222  01C5               	clrf	??___flmul+3
  2617  0223  0842               	movf	??___flmul,w
  2618  0224  07CE               	addwf	___flmul@prod,f
  2619  0225  0843               	movf	??___flmul+1,w
  2620  0226  1103               	clrz
  2621  0227  1803               	skipnc
  2622  0228  3E01               	addlw	1
  2623  0229  1903               	skipnz
  2624  022A  2A2C               	goto	u257_21
  2625  022B  07CF               	addwf	___flmul@prod+1,f
  2626  022C                     u257_21:
  2627  022C  0844               	movf	??___flmul+2,w
  2628  022D  1103               	clrz
  2629  022E  1803               	skipnc
  2630  022F  3E01               	addlw	1
  2631  0230  1903               	skipnz
  2632  0231  2A33               	goto	u257_22
  2633  0232  07D0               	addwf	___flmul@prod+2,f
  2634  0233                     u257_22:
  2635  0233  0845               	movf	??___flmul+3,w
  2636  0234  1103               	clrz
  2637  0235  1803               	skipnc
  2638  0236  3E01               	addlw	1
  2639  0237  1903               	skipnz
  2640  0238  2A3A               	goto	u257_23
  2641  0239  07D1               	addwf	___flmul@prod+3,f
  2642  023A                     u257_23:
  2643  023A  083C               	movf	___flmul@b+2,w
  2644  023B  00C2               	movwf	??___flmul
  2645  023C  0842               	movf	??___flmul,w
  2646  023D  00F0               	movwf	__Umul8_16@multiplicand
  2647  023E  0840               	movf	___flmul@a+2,w
  2648  023F  120A  158A  2421  120A  118A  	fcall	__Umul8_16
  2649  0244  0871               	movf	?__Umul8_16+1,w
  2650  0245  1283               	bcf	3,5	;RP0=0, select bank0
  2651  0246  1303               	bcf	3,6	;RP1=0, select bank0
  2652  0247  00D3               	movwf	___flmul@temp+1
  2653  0248  0870               	movf	?__Umul8_16,w
  2654  0249  00D2               	movwf	___flmul@temp
  2655  024A                     i1l1848:
  2656  024A  0852               	movf	___flmul@temp,w
  2657  024B  00C2               	movwf	??___flmul
  2658  024C  0853               	movf	___flmul@temp+1,w
  2659  024D  00C3               	movwf	??___flmul+1
  2660  024E  01C4               	clrf	??___flmul+2
  2661  024F  01C5               	clrf	??___flmul+3
  2662  0250  3008               	movlw	8
  2663  0251                     u258_25:
  2664  0251  1003               	clrc
  2665  0252  0DC2               	rlf	??___flmul,f
  2666  0253  0DC3               	rlf	??___flmul+1,f
  2667  0254  0DC4               	rlf	??___flmul+2,f
  2668  0255  0DC5               	rlf	??___flmul+3,f
  2669  0256                     u258_20:
  2670  0256  3EFF               	addlw	-1
  2671  0257  1D03               	skipz
  2672  0258  2A51               	goto	u258_25
  2673  0259  0842               	movf	??___flmul,w
  2674  025A  07CE               	addwf	___flmul@prod,f
  2675  025B  0843               	movf	??___flmul+1,w
  2676  025C  1103               	clrz
  2677  025D  1803               	skipnc
  2678  025E  3E01               	addlw	1
  2679  025F  1903               	skipnz
  2680  0260  2A62               	goto	u259_21
  2681  0261  07CF               	addwf	___flmul@prod+1,f
  2682  0262                     u259_21:
  2683  0262  0844               	movf	??___flmul+2,w
  2684  0263  1103               	clrz
  2685  0264  1803               	skipnc
  2686  0265  3E01               	addlw	1
  2687  0266  1903               	skipnz
  2688  0267  2A69               	goto	u259_22
  2689  0268  07D0               	addwf	___flmul@prod+2,f
  2690  0269                     u259_22:
  2691  0269  0845               	movf	??___flmul+3,w
  2692  026A  1103               	clrz
  2693  026B  1803               	skipnc
  2694  026C  3E01               	addlw	1
  2695  026D  1903               	skipnz
  2696  026E  2A70               	goto	u259_23
  2697  026F  07D1               	addwf	___flmul@prod+3,f
  2698  0270                     u259_23:
  2699  0270                     i1l1850:
  2700  0270  0848               	movf	___flmul@grs,w
  2701  0271  00C2               	movwf	??___flmul
  2702  0272  0849               	movf	___flmul@grs+1,w
  2703  0273  00C3               	movwf	??___flmul+1
  2704  0274  084A               	movf	___flmul@grs+2,w
  2705  0275  00C4               	movwf	??___flmul+2
  2706  0276  084B               	movf	___flmul@grs+3,w
  2707  0277  00C5               	movwf	??___flmul+3
  2708  0278  3018               	movlw	24
  2709  0279                     u260_25:
  2710  0279  1003               	clrc
  2711  027A  0CC5               	rrf	??___flmul+3,f
  2712  027B  0CC4               	rrf	??___flmul+2,f
  2713  027C  0CC3               	rrf	??___flmul+1,f
  2714  027D  0CC2               	rrf	??___flmul,f
  2715  027E                     u260_20:
  2716  027E  3EFF               	addlw	-1
  2717  027F  1D03               	skipz
  2718  0280  2A79               	goto	u260_25
  2719  0281  0842               	movf	??___flmul,w
  2720  0282  07CE               	addwf	___flmul@prod,f
  2721  0283  0843               	movf	??___flmul+1,w
  2722  0284  1103               	clrz
  2723  0285  1803               	skipnc
  2724  0286  3E01               	addlw	1
  2725  0287  1903               	skipnz
  2726  0288  2A8A               	goto	u261_21
  2727  0289  07CF               	addwf	___flmul@prod+1,f
  2728  028A                     u261_21:
  2729  028A  0844               	movf	??___flmul+2,w
  2730  028B  1103               	clrz
  2731  028C  1803               	skipnc
  2732  028D  3E01               	addlw	1
  2733  028E  1903               	skipnz
  2734  028F  2A91               	goto	u261_22
  2735  0290  07D0               	addwf	___flmul@prod+2,f
  2736  0291                     u261_22:
  2737  0291  0845               	movf	??___flmul+3,w
  2738  0292  1103               	clrz
  2739  0293  1803               	skipnc
  2740  0294  3E01               	addlw	1
  2741  0295  1903               	skipnz
  2742  0296  2A98               	goto	u261_23
  2743  0297  07D1               	addwf	___flmul@prod+3,f
  2744  0298                     u261_23:
  2745  0298                     i1l1852:
  2746  0298  3008               	movlw	8
  2747  0299  00C2               	movwf	??___flmul
  2748  029A                     u262_25:
  2749  029A  1003               	clrc
  2750  029B  0DC8               	rlf	___flmul@grs,f
  2751  029C  0DC9               	rlf	___flmul@grs+1,f
  2752  029D  0DCA               	rlf	___flmul@grs+2,f
  2753  029E  0DCB               	rlf	___flmul@grs+3,f
  2754  029F  0BC2               	decfsz	??___flmul,f
  2755  02A0  2A9A               	goto	u262_25
  2756  02A1                     i1l1854:
  2757  02A1  084D               	movf	___flmul@bexp,w
  2758  02A2  074C               	addwf	___flmul@aexp,w
  2759  02A3  00C2               	movwf	??___flmul
  2760  02A4  01C3               	clrf	??___flmul+1
  2761  02A5  0DC3               	rlf	??___flmul+1,f
  2762  02A6  0842               	movf	??___flmul,w
  2763  02A7  3E82               	addlw	130
  2764  02A8  00D2               	movwf	___flmul@temp
  2765  02A9  0843               	movf	??___flmul+1,w
  2766  02AA  1803               	skipnc
  2767  02AB  3E01               	addlw	1
  2768  02AC  3EFF               	addlw	255
  2769  02AD  00D3               	movwf	___flmul@temp+1
  2770  02AE  2ACC               	goto	i1l1866
  2771  02AF                     i1l1856:
  2772  02AF  3001               	movlw	1
  2773  02B0  00C2               	movwf	??___flmul
  2774  02B1                     u263_25:
  2775  02B1  1003               	clrc
  2776  02B2  0DCE               	rlf	___flmul@prod,f
  2777  02B3  0DCF               	rlf	___flmul@prod+1,f
  2778  02B4  0DD0               	rlf	___flmul@prod+2,f
  2779  02B5  0DD1               	rlf	___flmul@prod+3,f
  2780  02B6  0BC2               	decfsz	??___flmul,f
  2781  02B7  2AB1               	goto	u263_25
  2782  02B8                     i1l1858:
  2783  02B8  1FCB               	btfss	___flmul@grs+3,7
  2784  02B9  2ABB               	goto	u264_21
  2785  02BA  2ABC               	goto	u264_20
  2786  02BB                     u264_21:
  2787  02BB  2ABD               	goto	i1l1862
  2788  02BC                     u264_20:
  2789  02BC                     i1l1860:
  2790  02BC  144E               	bsf	___flmul@prod,0
  2791  02BD                     i1l1862:
  2792  02BD  3001               	movlw	1
  2793  02BE  00C2               	movwf	??___flmul
  2794  02BF                     u265_25:
  2795  02BF  1003               	clrc
  2796  02C0  0DC8               	rlf	___flmul@grs,f
  2797  02C1  0DC9               	rlf	___flmul@grs+1,f
  2798  02C2  0DCA               	rlf	___flmul@grs+2,f
  2799  02C3  0DCB               	rlf	___flmul@grs+3,f
  2800  02C4  0BC2               	decfsz	??___flmul,f
  2801  02C5  2ABF               	goto	u265_25
  2802  02C6                     i1l1864:
  2803  02C6  30FF               	movlw	255
  2804  02C7  07D2               	addwf	___flmul@temp,f
  2805  02C8  1803               	skipnc
  2806  02C9  0AD3               	incf	___flmul@temp+1,f
  2807  02CA  30FF               	movlw	255
  2808  02CB  07D3               	addwf	___flmul@temp+1,f
  2809  02CC                     i1l1866:
  2810  02CC  1FD0               	btfss	___flmul@prod+2,7
  2811  02CD  2ACF               	goto	u266_21
  2812  02CE  2AD0               	goto	u266_20
  2813  02CF                     u266_21:
  2814  02CF  2AAF               	goto	i1l1856
  2815  02D0                     u266_20:
  2816  02D0                     i1l1868:
  2817  02D0  01CC               	clrf	___flmul@aexp
  2818  02D1                     i1l1870:
  2819  02D1  1FCB               	btfss	___flmul@grs+3,7
  2820  02D2  2AD4               	goto	u267_21
  2821  02D3  2AD5               	goto	u267_20
  2822  02D4                     u267_21:
  2823  02D4  2AF1               	goto	i1l1878
  2824  02D5                     u267_20:
  2825  02D5                     i1l1872:
  2826  02D5  30FF               	movlw	255
  2827  02D6  0548               	andwf	___flmul@grs,w
  2828  02D7  00C2               	movwf	??___flmul
  2829  02D8  30FF               	movlw	255
  2830  02D9  0549               	andwf	___flmul@grs+1,w
  2831  02DA  00C3               	movwf	??___flmul+1
  2832  02DB  30FF               	movlw	255
  2833  02DC  054A               	andwf	___flmul@grs+2,w
  2834  02DD  00C4               	movwf	??___flmul+2
  2835  02DE  307F               	movlw	127
  2836  02DF  054B               	andwf	___flmul@grs+3,w
  2837  02E0  00C5               	movwf	??___flmul+3
  2838  02E1  0845               	movf	??___flmul+3,w
  2839  02E2  0444               	iorwf	??___flmul+2,w
  2840  02E3  0443               	iorwf	??___flmul+1,w
  2841  02E4  0442               	iorwf	??___flmul,w
  2842  02E5  1903               	skipnz
  2843  02E6  2AE8               	goto	u268_21
  2844  02E7  2AE9               	goto	u268_20
  2845  02E8                     u268_21:
  2846  02E8  2AEC               	goto	i1l581
  2847  02E9                     u268_20:
  2848  02E9                     i1l1874:
  2849  02E9  01CC               	clrf	___flmul@aexp
  2850  02EA  0ACC               	incf	___flmul@aexp,f
  2851  02EB  2AF1               	goto	i1l1878
  2852  02EC                     i1l581:
  2853  02EC  1C4E               	btfss	___flmul@prod,0
  2854  02ED  2AEF               	goto	u269_21
  2855  02EE  2AF0               	goto	u269_20
  2856  02EF                     u269_21:
  2857  02EF  2AF1               	goto	i1l1878
  2858  02F0                     u269_20:
  2859  02F0  2AE9               	goto	i1l1874
  2860  02F1                     i1l1878:
  2861  02F1  084C               	movf	___flmul@aexp,w
  2862  02F2  1903               	btfsc	3,2
  2863  02F3  2AF5               	goto	u270_21
  2864  02F4  2AF6               	goto	u270_20
  2865  02F5                     u270_21:
  2866  02F5  2B27               	goto	i1l1888
  2867  02F6                     u270_20:
  2868  02F6                     i1l1880:
  2869  02F6  3001               	movlw	1
  2870  02F7  07CE               	addwf	___flmul@prod,f
  2871  02F8  3000               	movlw	0
  2872  02F9  1803               	skipnc
  2873  02FA  3001               	movlw	1
  2874  02FB  07CF               	addwf	___flmul@prod+1,f
  2875  02FC  3000               	movlw	0
  2876  02FD  1803               	skipnc
  2877  02FE  3001               	movlw	1
  2878  02FF  07D0               	addwf	___flmul@prod+2,f
  2879  0300  3000               	movlw	0
  2880  0301  1803               	skipnc
  2881  0302  3001               	movlw	1
  2882  0303  07D1               	addwf	___flmul@prod+3,f
  2883  0304                     i1l1882:
  2884  0304  1C51               	btfss	___flmul@prod+3,0
  2885  0305  2B07               	goto	u271_21
  2886  0306  2B08               	goto	u271_20
  2887  0307                     u271_21:
  2888  0307  2B27               	goto	i1l1888
  2889  0308                     u271_20:
  2890  0308                     i1l1884:
  2891  0308  084E               	movf	___flmul@prod,w
  2892  0309  00C2               	movwf	??___flmul
  2893  030A  084F               	movf	___flmul@prod+1,w
  2894  030B  00C3               	movwf	??___flmul+1
  2895  030C  0850               	movf	___flmul@prod+2,w
  2896  030D  00C4               	movwf	??___flmul+2
  2897  030E  0851               	movf	___flmul@prod+3,w
  2898  030F  00C5               	movwf	??___flmul+3
  2899  0310  3001               	movlw	1
  2900  0311  00C6               	movwf	??___flmul+4
  2901  0312                     u272_25:
  2902  0312  0D45               	rlf	??___flmul+3,w
  2903  0313  0CC5               	rrf	??___flmul+3,f
  2904  0314  0CC4               	rrf	??___flmul+2,f
  2905  0315  0CC3               	rrf	??___flmul+1,f
  2906  0316  0CC2               	rrf	??___flmul,f
  2907  0317                     u272_20:
  2908  0317  0BC6               	decfsz	??___flmul+4,f
  2909  0318  2B12               	goto	u272_25
  2910  0319  0845               	movf	??___flmul+3,w
  2911  031A  00D1               	movwf	___flmul@prod+3
  2912  031B  0844               	movf	??___flmul+2,w
  2913  031C  00D0               	movwf	___flmul@prod+2
  2914  031D  0843               	movf	??___flmul+1,w
  2915  031E  00CF               	movwf	___flmul@prod+1
  2916  031F  0842               	movf	??___flmul,w
  2917  0320  00CE               	movwf	___flmul@prod
  2918  0321                     i1l1886:
  2919  0321  3001               	movlw	1
  2920  0322  07D2               	addwf	___flmul@temp,f
  2921  0323  1803               	skipnc
  2922  0324  0AD3               	incf	___flmul@temp+1,f
  2923  0325  3000               	movlw	0
  2924  0326  07D3               	addwf	___flmul@temp+1,f
  2925  0327                     i1l1888:
  2926  0327  0853               	movf	___flmul@temp+1,w
  2927  0328  3A80               	xorlw	128
  2928  0329  00FF               	movwf	btemp+1
  2929  032A  3080               	movlw	128
  2930  032B  027F               	subwf	btemp+1,w
  2931  032C  1D03               	skipz
  2932  032D  2B30               	goto	u273_25
  2933  032E  30FF               	movlw	255
  2934  032F  0252               	subwf	___flmul@temp,w
  2935  0330                     u273_25:
  2936  0330  1C03               	skipc
  2937  0331  2B33               	goto	u273_21
  2938  0332  2B34               	goto	u273_20
  2939  0333                     u273_21:
  2940  0333  2B3F               	goto	i1l1892
  2941  0334                     u273_20:
  2942  0334                     i1l1890:
  2943  0334  307F               	movlw	127
  2944  0335  1283               	bcf	3,5	;RP0=0, select bank0
  2945  0336  1303               	bcf	3,6	;RP1=0, select bank0
  2946  0337  00D1               	movwf	___flmul@prod+3
  2947  0338  3080               	movlw	128
  2948  0339  00D0               	movwf	___flmul@prod+2
  2949  033A  3000               	movlw	0
  2950  033B  00CF               	movwf	___flmul@prod+1
  2951  033C  3000               	movlw	0
  2952  033D  00CE               	movwf	___flmul@prod
  2953  033E  2B74               	goto	i1l587
  2954  033F                     i1l1892:
  2955  033F  1283               	bcf	3,5	;RP0=0, select bank0
  2956  0340  1303               	bcf	3,6	;RP1=0, select bank0
  2957  0341  0853               	movf	___flmul@temp+1,w
  2958  0342  3A80               	xorlw	128
  2959  0343  00FF               	movwf	btemp+1
  2960  0344  3080               	movlw	128
  2961  0345  027F               	subwf	btemp+1,w
  2962  0346  1D03               	skipz
  2963  0347  2B4A               	goto	u274_25
  2964  0348  3001               	movlw	1
  2965  0349  0252               	subwf	___flmul@temp,w
  2966  034A                     u274_25:
  2967  034A  1803               	skipnc
  2968  034B  2B4D               	goto	u274_21
  2969  034C  2B4E               	goto	u274_20
  2970  034D                     u274_21:
  2971  034D  2B5A               	goto	i1l1898
  2972  034E                     u274_20:
  2973  034E                     i1l1894:
  2974  034E  3000               	movlw	0
  2975  034F  1283               	bcf	3,5	;RP0=0, select bank0
  2976  0350  1303               	bcf	3,6	;RP1=0, select bank0
  2977  0351  00D1               	movwf	___flmul@prod+3
  2978  0352  3000               	movlw	0
  2979  0353  00D0               	movwf	___flmul@prod+2
  2980  0354  3000               	movlw	0
  2981  0355  00CF               	movwf	___flmul@prod+1
  2982  0356  3000               	movlw	0
  2983  0357  00CE               	movwf	___flmul@prod
  2984  0358                     i1l1896:
  2985  0358  01C7               	clrf	___flmul@sign
  2986  0359  2B74               	goto	i1l587
  2987  035A                     i1l1898:
  2988  035A  1283               	bcf	3,5	;RP0=0, select bank0
  2989  035B  1303               	bcf	3,6	;RP1=0, select bank0
  2990  035C  0852               	movf	___flmul@temp,w
  2991  035D  00C2               	movwf	??___flmul
  2992  035E  0842               	movf	??___flmul,w
  2993  035F  00CD               	movwf	___flmul@bexp
  2994  0360  30FF               	movlw	255
  2995  0361  05CE               	andwf	___flmul@prod,f
  2996  0362  30FF               	movlw	255
  2997  0363  05CF               	andwf	___flmul@prod+1,f
  2998  0364  307F               	movlw	127
  2999  0365  05D0               	andwf	___flmul@prod+2,f
  3000  0366  3000               	movlw	0
  3001  0367  05D1               	andwf	___flmul@prod+3,f
  3002  0368                     i1l1900:
  3003  0368  1C4D               	btfss	___flmul@bexp,0
  3004  0369  2B6B               	goto	u275_21
  3005  036A  2B6C               	goto	u275_20
  3006  036B                     u275_21:
  3007  036B  2B6D               	goto	i1l1904
  3008  036C                     u275_20:
  3009  036C                     i1l1902:
  3010  036C  17D0               	bsf	___flmul@prod+2,7
  3011  036D                     i1l1904:
  3012  036D  084D               	movf	___flmul@bexp,w
  3013  036E  00C2               	movwf	??___flmul
  3014  036F  1003               	clrc
  3015  0370  0C42               	rrf	??___flmul,w
  3016  0371  00C3               	movwf	??___flmul+1
  3017  0372  0843               	movf	??___flmul+1,w
  3018  0373  00D1               	movwf	___flmul@prod+3
  3019  0374                     i1l587:
  3020  0374  0847               	movf	___flmul@sign,w
  3021  0375  00C2               	movwf	??___flmul
  3022  0376  0842               	movf	??___flmul,w
  3023  0377  04D1               	iorwf	___flmul@prod+3,f
  3024  0378                     i1l1906:
  3025  0378  0851               	movf	___flmul@prod+3,w
  3026  0379  00BD               	movwf	?___flmul+3
  3027  037A  0850               	movf	___flmul@prod+2,w
  3028  037B  00BC               	movwf	?___flmul+2
  3029  037C  084F               	movf	___flmul@prod+1,w
  3030  037D  00BB               	movwf	?___flmul+1
  3031  037E  084E               	movf	___flmul@prod,w
  3032  037F  00BA               	movwf	?___flmul
  3033  0380                     i1l575:
  3034  0380  0008               	return
  3035  0381                     __end_of___flmul:
  3036                           
  3037                           	psect	text7
  3038  0C21                     __ptext7:	
  3039 ;; *************** function __Umul8_16 *****************
  3040 ;; Defined at:
  3041 ;;		line 4 in file "C:\Program Files\Microchip\xc8\v2.35\pic\sources\c90\common\Umul8_16.c"
  3042 ;; Parameters:    Size  Location     Type
  3043 ;;  multiplier      1    wreg     unsigned char 
  3044 ;;  multiplicand    1    0[COMMON] unsigned char 
  3045 ;; Auto vars:     Size  Location     Type
  3046 ;;  multiplier      1    8[COMMON] unsigned char 
  3047 ;;  word_mpld       2    6[COMMON] unsigned int 
  3048 ;;  product         2    4[COMMON] unsigned int 
  3049 ;; Return value:  Size  Location     Type
  3050 ;;                  2    0[COMMON] unsigned int 
  3051 ;; Registers used:
  3052 ;;		wreg, status,2, status,0
  3053 ;; Tracked objects:
  3054 ;;		On entry : 0/0
  3055 ;;		On exit  : 0/0
  3056 ;;		Unchanged: 0/0
  3057 ;; Data sizes:     COMMON   BANK0   BANK1   BANK3   BANK2
  3058 ;;      Params:         2       0       0       0       0
  3059 ;;      Locals:         5       0       0       0       0
  3060 ;;      Temps:          2       0       0       0       0
  3061 ;;      Totals:         9       0       0       0       0
  3062 ;;Total ram usage:        9 bytes
  3063 ;; Hardware stack levels used: 1
  3064 ;; This function calls:
  3065 ;;		Nothing
  3066 ;; This function is called by:
  3067 ;;		___flmul
  3068 ;; This function uses a non-reentrant model
  3069 ;;
  3070                           
  3071  0C21                     __Umul8_16:	
  3072                           ;psect for function __Umul8_16
  3073                           
  3074                           
  3075                           ;incstack = 0
  3076                           ; Regs used in __Umul8_16: [wreg+status,2+status,0]
  3077                           ;__Umul8_16@multiplier stored from wreg
  3078  0C21  00F8               	movwf	__Umul8_16@multiplier
  3079  0C22                     i1l1384:
  3080  0C22  01F4               	clrf	__Umul8_16@product
  3081  0C23  01F5               	clrf	__Umul8_16@product+1
  3082  0C24                     i1l1386:
  3083  0C24  0870               	movf	__Umul8_16@multiplicand,w
  3084  0C25  00F2               	movwf	??__Umul8_16
  3085  0C26  01F3               	clrf	??__Umul8_16+1
  3086  0C27  0872               	movf	??__Umul8_16,w
  3087  0C28  00F6               	movwf	__Umul8_16@word_mpld
  3088  0C29  0873               	movf	??__Umul8_16+1,w
  3089  0C2A  00F7               	movwf	__Umul8_16@word_mpld+1
  3090  0C2B                     i1l1388:
  3091  0C2B  1C78               	btfss	__Umul8_16@multiplier,0
  3092  0C2C  2C2E               	goto	u151_21
  3093  0C2D  2C2F               	goto	u151_20
  3094  0C2E                     u151_21:
  3095  0C2E  2C35               	goto	i1l594
  3096  0C2F                     u151_20:
  3097  0C2F                     i1l1390:
  3098  0C2F  0876               	movf	__Umul8_16@word_mpld,w
  3099  0C30  07F4               	addwf	__Umul8_16@product,f
  3100  0C31  1803               	skipnc
  3101  0C32  0AF5               	incf	__Umul8_16@product+1,f
  3102  0C33  0877               	movf	__Umul8_16@word_mpld+1,w
  3103  0C34  07F5               	addwf	__Umul8_16@product+1,f
  3104  0C35                     i1l594:
  3105  0C35  3001               	movlw	1
  3106  0C36                     u152_25:
  3107  0C36  1003               	clrc
  3108  0C37  0DF6               	rlf	__Umul8_16@word_mpld,f
  3109  0C38  0DF7               	rlf	__Umul8_16@word_mpld+1,f
  3110  0C39  3EFF               	addlw	-1
  3111  0C3A  1D03               	skipz
  3112  0C3B  2C36               	goto	u152_25
  3113  0C3C  1003               	clrc
  3114  0C3D  0CF8               	rrf	__Umul8_16@multiplier,f
  3115  0C3E                     i1l1392:
  3116  0C3E  0878               	movf	__Umul8_16@multiplier,w
  3117  0C3F  1D03               	btfss	3,2
  3118  0C40  2C42               	goto	u153_21
  3119  0C41  2C43               	goto	u153_20
  3120  0C42                     u153_21:
  3121  0C42  2C2B               	goto	i1l1388
  3122  0C43                     u153_20:
  3123  0C43                     i1l1394:
  3124  0C43  0875               	movf	__Umul8_16@product+1,w
  3125  0C44  00F1               	movwf	?__Umul8_16+1
  3126  0C45  0874               	movf	__Umul8_16@product,w
  3127  0C46  00F0               	movwf	?__Umul8_16
  3128  0C47                     i1l596:
  3129  0C47  0008               	return
  3130  0C48                     __end_of__Umul8_16:
  3131                           
  3132                           	psect	text8
  3133  0609                     __ptext8:	
  3134 ;; *************** function ___fldiv *****************
  3135 ;; Defined at:
  3136 ;;		line 8 in file "C:\Program Files\Microchip\xc8\v2.35\pic\sources\c90\common\sprcdiv.c"
  3137 ;; Parameters:    Size  Location     Type
  3138 ;;  a               4    0[BANK0 ] unsigned int 
  3139 ;;  b               4    4[BANK0 ] unsigned int 
  3140 ;; Auto vars:     Size  Location     Type
  3141 ;;  grs             4   20[BANK0 ] unsigned long 
  3142 ;;  rem             4   13[BANK0 ] unsigned long 
  3143 ;;  new_exp         2   18[BANK0 ] int 
  3144 ;;  aexp            1   25[BANK0 ] unsigned char 
  3145 ;;  bexp            1   24[BANK0 ] unsigned char 
  3146 ;;  sign            1   17[BANK0 ] unsigned char 
  3147 ;; Return value:  Size  Location     Type
  3148 ;;                  4    0[BANK0 ] unsigned char 
  3149 ;; Registers used:
  3150 ;;		wreg, status,2, status,0, btemp+1
  3151 ;; Tracked objects:
  3152 ;;		On entry : 0/0
  3153 ;;		On exit  : 0/0
  3154 ;;		Unchanged: 0/0
  3155 ;; Data sizes:     COMMON   BANK0   BANK1   BANK3   BANK2
  3156 ;;      Params:         0       8       0       0       0
  3157 ;;      Locals:         0      13       0       0       0
  3158 ;;      Temps:          0       5       0       0       0
  3159 ;;      Totals:         0      26       0       0       0
  3160 ;;Total ram usage:       26 bytes
  3161 ;; Hardware stack levels used: 1
  3162 ;; This function calls:
  3163 ;;		Nothing
  3164 ;; This function is called by:
  3165 ;;		_map
  3166 ;; This function uses a non-reentrant model
  3167 ;;
  3168                           
  3169  0609                     ___fldiv:	
  3170                           ;psect for function ___fldiv
  3171                           
  3172  0609                     i1l1628:	
  3173                           ;incstack = 0
  3174                           ; Regs used in ___fldiv: [wreg+status,2+status,0+btemp+1]
  3175                           
  3176  0609  1283               	bcf	3,5	;RP0=0, select bank0
  3177  060A  1303               	bcf	3,6	;RP1=0, select bank0
  3178  060B  0827               	movf	___fldiv@b+3,w
  3179  060C  3980               	andlw	128
  3180  060D  00A8               	movwf	??___fldiv
  3181  060E  0828               	movf	??___fldiv,w
  3182  060F  00B1               	movwf	___fldiv@sign
  3183  0610                     i1l1630:
  3184  0610  0827               	movf	___fldiv@b+3,w
  3185  0611  00A8               	movwf	??___fldiv
  3186  0612  0728               	addwf	??___fldiv,w
  3187  0613  00A9               	movwf	??___fldiv+1
  3188  0614  0829               	movf	??___fldiv+1,w
  3189  0615  00B8               	movwf	___fldiv@bexp
  3190  0616                     i1l1632:
  3191  0616  1FA6               	btfss	___fldiv@b+2,7
  3192  0617  2E19               	goto	u210_21
  3193  0618  2E1A               	goto	u210_20
  3194  0619                     u210_21:
  3195  0619  2E1B               	goto	i1l1636
  3196  061A                     u210_20:
  3197  061A                     i1l1634:
  3198  061A  1438               	bsf	___fldiv@bexp,0
  3199  061B                     i1l1636:
  3200  061B  0838               	movf	___fldiv@bexp,w
  3201  061C  1903               	btfsc	3,2
  3202  061D  2E1F               	goto	u211_21
  3203  061E  2E20               	goto	u211_20
  3204  061F                     u211_21:
  3205  061F  2E30               	goto	i1l1646
  3206  0620                     u211_20:
  3207  0620                     i1l1638:
  3208  0620  0A38               	incf	___fldiv@bexp,w
  3209  0621  1D03               	btfss	3,2
  3210  0622  2E24               	goto	u212_21
  3211  0623  2E25               	goto	u212_20
  3212  0624                     u212_21:
  3213  0624  2E2D               	goto	i1l1642
  3214  0625                     u212_20:
  3215  0625                     i1l1640:
  3216  0625  3000               	movlw	0
  3217  0626  00A7               	movwf	___fldiv@b+3
  3218  0627  3000               	movlw	0
  3219  0628  00A6               	movwf	___fldiv@b+2
  3220  0629  3000               	movlw	0
  3221  062A  00A5               	movwf	___fldiv@b+1
  3222  062B  3000               	movlw	0
  3223  062C  00A4               	movwf	___fldiv@b
  3224  062D                     i1l1642:
  3225  062D  17A6               	bsf	___fldiv@b+2,7
  3226  062E                     i1l1644:
  3227  062E  01A7               	clrf	___fldiv@b+3
  3228  062F  2E38               	goto	i1l1648
  3229  0630                     i1l1646:
  3230  0630  3000               	movlw	0
  3231  0631  00A7               	movwf	___fldiv@b+3
  3232  0632  3000               	movlw	0
  3233  0633  00A6               	movwf	___fldiv@b+2
  3234  0634  3000               	movlw	0
  3235  0635  00A5               	movwf	___fldiv@b+1
  3236  0636  3000               	movlw	0
  3237  0637  00A4               	movwf	___fldiv@b
  3238  0638                     i1l1648:
  3239  0638  0823               	movf	___fldiv@a+3,w
  3240  0639  3980               	andlw	128
  3241  063A  00A8               	movwf	??___fldiv
  3242  063B  0828               	movf	??___fldiv,w
  3243  063C  06B1               	xorwf	___fldiv@sign,f
  3244  063D                     i1l1650:
  3245  063D  0823               	movf	___fldiv@a+3,w
  3246  063E  00A8               	movwf	??___fldiv
  3247  063F  0728               	addwf	??___fldiv,w
  3248  0640  00A9               	movwf	??___fldiv+1
  3249  0641  0829               	movf	??___fldiv+1,w
  3250  0642  00B9               	movwf	___fldiv@aexp
  3251  0643                     i1l1652:
  3252  0643  1FA2               	btfss	___fldiv@a+2,7
  3253  0644  2E46               	goto	u213_21
  3254  0645  2E47               	goto	u213_20
  3255  0646                     u213_21:
  3256  0646  2E48               	goto	i1l1656
  3257  0647                     u213_20:
  3258  0647                     i1l1654:
  3259  0647  1439               	bsf	___fldiv@aexp,0
  3260  0648                     i1l1656:
  3261  0648  0839               	movf	___fldiv@aexp,w
  3262  0649  1903               	btfsc	3,2
  3263  064A  2E4C               	goto	u214_21
  3264  064B  2E4D               	goto	u214_20
  3265  064C                     u214_21:
  3266  064C  2E5D               	goto	i1l1666
  3267  064D                     u214_20:
  3268  064D                     i1l1658:
  3269  064D  0A39               	incf	___fldiv@aexp,w
  3270  064E  1D03               	btfss	3,2
  3271  064F  2E51               	goto	u215_21
  3272  0650  2E52               	goto	u215_20
  3273  0651                     u215_21:
  3274  0651  2E5A               	goto	i1l1662
  3275  0652                     u215_20:
  3276  0652                     i1l1660:
  3277  0652  3000               	movlw	0
  3278  0653  00A3               	movwf	___fldiv@a+3
  3279  0654  3000               	movlw	0
  3280  0655  00A2               	movwf	___fldiv@a+2
  3281  0656  3000               	movlw	0
  3282  0657  00A1               	movwf	___fldiv@a+1
  3283  0658  3000               	movlw	0
  3284  0659  00A0               	movwf	___fldiv@a
  3285  065A                     i1l1662:
  3286  065A  17A2               	bsf	___fldiv@a+2,7
  3287  065B                     i1l1664:
  3288  065B  01A3               	clrf	___fldiv@a+3
  3289  065C  2E65               	goto	i1l535
  3290  065D                     i1l1666:
  3291  065D  3000               	movlw	0
  3292  065E  00A3               	movwf	___fldiv@a+3
  3293  065F  3000               	movlw	0
  3294  0660  00A2               	movwf	___fldiv@a+2
  3295  0661  3000               	movlw	0
  3296  0662  00A1               	movwf	___fldiv@a+1
  3297  0663  3000               	movlw	0
  3298  0664  00A0               	movwf	___fldiv@a
  3299  0665                     i1l535:
  3300  0665  0823               	movf	___fldiv@a+3,w
  3301  0666  0422               	iorwf	___fldiv@a+2,w
  3302  0667  0421               	iorwf	___fldiv@a+1,w
  3303  0668  0420               	iorwf	___fldiv@a,w
  3304  0669  1D03               	skipz
  3305  066A  2E6C               	goto	u216_21
  3306  066B  2E6D               	goto	u216_20
  3307  066C                     u216_21:
  3308  066C  2E86               	goto	i1l1676
  3309  066D                     u216_20:
  3310  066D                     i1l1668:
  3311  066D  3000               	movlw	0
  3312  066E  00A7               	movwf	___fldiv@b+3
  3313  066F  3000               	movlw	0
  3314  0670  00A6               	movwf	___fldiv@b+2
  3315  0671  3000               	movlw	0
  3316  0672  00A5               	movwf	___fldiv@b+1
  3317  0673  3000               	movlw	0
  3318  0674  00A4               	movwf	___fldiv@b
  3319  0675  3080               	movlw	128
  3320  0676  04A6               	iorwf	___fldiv@b+2,f
  3321  0677  307F               	movlw	127
  3322  0678  04A7               	iorwf	___fldiv@b+3,f
  3323  0679                     i1l1670:
  3324  0679  0831               	movf	___fldiv@sign,w
  3325  067A  00A8               	movwf	??___fldiv
  3326  067B  0828               	movf	??___fldiv,w
  3327  067C  04A7               	iorwf	___fldiv@b+3,f
  3328  067D                     i1l1672:
  3329  067D  0827               	movf	___fldiv@b+3,w
  3330  067E  00A3               	movwf	?___fldiv+3
  3331  067F  0826               	movf	___fldiv@b+2,w
  3332  0680  00A2               	movwf	?___fldiv+2
  3333  0681  0825               	movf	___fldiv@b+1,w
  3334  0682  00A1               	movwf	?___fldiv+1
  3335  0683  0824               	movf	___fldiv@b,w
  3336  0684  00A0               	movwf	?___fldiv
  3337  0685  2FE5               	goto	i1l537
  3338  0686                     i1l1676:
  3339  0686  0838               	movf	___fldiv@bexp,w
  3340  0687  1D03               	btfss	3,2
  3341  0688  2E8A               	goto	u217_21
  3342  0689  2E8B               	goto	u217_20
  3343  068A                     u217_21:
  3344  068A  2E94               	goto	i1l1682
  3345  068B                     u217_20:
  3346  068B                     i1l1678:
  3347  068B  3000               	movlw	0
  3348  068C  00A3               	movwf	?___fldiv+3
  3349  068D  3000               	movlw	0
  3350  068E  00A2               	movwf	?___fldiv+2
  3351  068F  3000               	movlw	0
  3352  0690  00A1               	movwf	?___fldiv+1
  3353  0691  3000               	movlw	0
  3354  0692  00A0               	movwf	?___fldiv
  3355  0693  2FE5               	goto	i1l537
  3356  0694                     i1l1682:
  3357  0694  0838               	movf	___fldiv@bexp,w
  3358  0695  00A8               	movwf	??___fldiv
  3359  0696  01A9               	clrf	??___fldiv+1
  3360  0697  0829               	movf	??___fldiv+1,w
  3361  0698  00AB               	movwf	??___fldiv+3
  3362  0699  0839               	movf	___fldiv@aexp,w
  3363  069A  0228               	subwf	??___fldiv,w
  3364  069B  00AA               	movwf	??___fldiv+2
  3365  069C  1C03               	skipc
  3366  069D  03AB               	decf	??___fldiv+3,f
  3367  069E  082A               	movf	??___fldiv+2,w
  3368  069F  3E7F               	addlw	127
  3369  06A0  00B2               	movwf	___fldiv@new_exp
  3370  06A1  082B               	movf	??___fldiv+3,w
  3371  06A2  1803               	skipnc
  3372  06A3  3E01               	addlw	1
  3373  06A4  3E00               	addlw	0
  3374  06A5  00B3               	movwf	___fldiv@new_exp+1
  3375  06A6                     i1l1684:
  3376  06A6  0827               	movf	___fldiv@b+3,w
  3377  06A7  00B0               	movwf	___fldiv@rem+3
  3378  06A8  0826               	movf	___fldiv@b+2,w
  3379  06A9  00AF               	movwf	___fldiv@rem+2
  3380  06AA  0825               	movf	___fldiv@b+1,w
  3381  06AB  00AE               	movwf	___fldiv@rem+1
  3382  06AC  0824               	movf	___fldiv@b,w
  3383  06AD  00AD               	movwf	___fldiv@rem
  3384  06AE                     i1l1686:
  3385  06AE  3000               	movlw	0
  3386  06AF  00A7               	movwf	___fldiv@b+3
  3387  06B0  3000               	movlw	0
  3388  06B1  00A6               	movwf	___fldiv@b+2
  3389  06B2  3000               	movlw	0
  3390  06B3  00A5               	movwf	___fldiv@b+1
  3391  06B4  3000               	movlw	0
  3392  06B5  00A4               	movwf	___fldiv@b
  3393  06B6                     i1l1688:
  3394  06B6  3000               	movlw	0
  3395  06B7  00B7               	movwf	___fldiv@grs+3
  3396  06B8  3000               	movlw	0
  3397  06B9  00B6               	movwf	___fldiv@grs+2
  3398  06BA  3000               	movlw	0
  3399  06BB  00B5               	movwf	___fldiv@grs+1
  3400  06BC  3000               	movlw	0
  3401  06BD  00B4               	movwf	___fldiv@grs
  3402  06BE                     i1l1690:
  3403  06BE  01B9               	clrf	___fldiv@aexp
  3404  06BF  2F0A               	goto	i1l1710
  3405  06C0                     i1l1692:
  3406  06C0  0839               	movf	___fldiv@aexp,w
  3407  06C1  1903               	btfsc	3,2
  3408  06C2  2EC4               	goto	u218_21
  3409  06C3  2EC5               	goto	u218_20
  3410  06C4                     u218_21:
  3411  06C4  2EE5               	goto	i1l1702
  3412  06C5                     u218_20:
  3413  06C5                     i1l1694:
  3414  06C5  3001               	movlw	1
  3415  06C6  00A8               	movwf	??___fldiv
  3416  06C7                     u219_25:
  3417  06C7  1003               	clrc
  3418  06C8  0DAD               	rlf	___fldiv@rem,f
  3419  06C9  0DAE               	rlf	___fldiv@rem+1,f
  3420  06CA  0DAF               	rlf	___fldiv@rem+2,f
  3421  06CB  0DB0               	rlf	___fldiv@rem+3,f
  3422  06CC  0BA8               	decfsz	??___fldiv,f
  3423  06CD  2EC7               	goto	u219_25
  3424  06CE  3001               	movlw	1
  3425  06CF  00A8               	movwf	??___fldiv
  3426  06D0                     u220_25:
  3427  06D0  1003               	clrc
  3428  06D1  0DA4               	rlf	___fldiv@b,f
  3429  06D2  0DA5               	rlf	___fldiv@b+1,f
  3430  06D3  0DA6               	rlf	___fldiv@b+2,f
  3431  06D4  0DA7               	rlf	___fldiv@b+3,f
  3432  06D5  0BA8               	decfsz	??___fldiv,f
  3433  06D6  2ED0               	goto	u220_25
  3434  06D7                     i1l1696:
  3435  06D7  1FB7               	btfss	___fldiv@grs+3,7
  3436  06D8  2EDA               	goto	u221_21
  3437  06D9  2EDB               	goto	u221_20
  3438  06DA                     u221_21:
  3439  06DA  2EDC               	goto	i1l1700
  3440  06DB                     u221_20:
  3441  06DB                     i1l1698:
  3442  06DB  1424               	bsf	___fldiv@b,0
  3443  06DC                     i1l1700:
  3444  06DC  3001               	movlw	1
  3445  06DD  00A8               	movwf	??___fldiv
  3446  06DE                     u222_25:
  3447  06DE  1003               	clrc
  3448  06DF  0DB4               	rlf	___fldiv@grs,f
  3449  06E0  0DB5               	rlf	___fldiv@grs+1,f
  3450  06E1  0DB6               	rlf	___fldiv@grs+2,f
  3451  06E2  0DB7               	rlf	___fldiv@grs+3,f
  3452  06E3  0BA8               	decfsz	??___fldiv,f
  3453  06E4  2EDE               	goto	u222_25
  3454  06E5                     i1l1702:
  3455  06E5  0823               	movf	___fldiv@a+3,w
  3456  06E6  0230               	subwf	___fldiv@rem+3,w
  3457  06E7  1D03               	skipz
  3458  06E8  2EF3               	goto	u223_25
  3459  06E9  0822               	movf	___fldiv@a+2,w
  3460  06EA  022F               	subwf	___fldiv@rem+2,w
  3461  06EB  1D03               	skipz
  3462  06EC  2EF3               	goto	u223_25
  3463  06ED  0821               	movf	___fldiv@a+1,w
  3464  06EE  022E               	subwf	___fldiv@rem+1,w
  3465  06EF  1D03               	skipz
  3466  06F0  2EF3               	goto	u223_25
  3467  06F1  0820               	movf	___fldiv@a,w
  3468  06F2  022D               	subwf	___fldiv@rem,w
  3469  06F3                     u223_25:
  3470  06F3  1C03               	skipc
  3471  06F4  2EF6               	goto	u223_21
  3472  06F5  2EF7               	goto	u223_20
  3473  06F6                     u223_21:
  3474  06F6  2F06               	goto	i1l1708
  3475  06F7                     u223_20:
  3476  06F7                     i1l1704:
  3477  06F7  1737               	bsf	___fldiv@grs+3,6
  3478  06F8                     i1l1706:
  3479  06F8  0820               	movf	___fldiv@a,w
  3480  06F9  02AD               	subwf	___fldiv@rem,f
  3481  06FA  0821               	movf	___fldiv@a+1,w
  3482  06FB  1C03               	skipc
  3483  06FC  0F21               	incfsz	___fldiv@a+1,w
  3484  06FD  02AE               	subwf	___fldiv@rem+1,f
  3485  06FE  0822               	movf	___fldiv@a+2,w
  3486  06FF  1C03               	skipc
  3487  0700  0F22               	incfsz	___fldiv@a+2,w
  3488  0701  02AF               	subwf	___fldiv@rem+2,f
  3489  0702  0823               	movf	___fldiv@a+3,w
  3490  0703  1C03               	skipc
  3491  0704  0F23               	incfsz	___fldiv@a+3,w
  3492  0705  02B0               	subwf	___fldiv@rem+3,f
  3493  0706                     i1l1708:
  3494  0706  3001               	movlw	1
  3495  0707  00A8               	movwf	??___fldiv
  3496  0708  0828               	movf	??___fldiv,w
  3497  0709  07B9               	addwf	___fldiv@aexp,f
  3498  070A                     i1l1710:
  3499  070A  301A               	movlw	26
  3500  070B  0239               	subwf	___fldiv@aexp,w
  3501  070C  1C03               	skipc
  3502  070D  2F0F               	goto	u224_21
  3503  070E  2F10               	goto	u224_20
  3504  070F                     u224_21:
  3505  070F  2EC0               	goto	i1l1692
  3506  0710                     u224_20:
  3507  0710                     i1l1712:
  3508  0710  0830               	movf	___fldiv@rem+3,w
  3509  0711  042F               	iorwf	___fldiv@rem+2,w
  3510  0712  042E               	iorwf	___fldiv@rem+1,w
  3511  0713  042D               	iorwf	___fldiv@rem,w
  3512  0714  1903               	skipnz
  3513  0715  2F17               	goto	u225_21
  3514  0716  2F18               	goto	u225_20
  3515  0717                     u225_21:
  3516  0717  2F37               	goto	i1l1726
  3517  0718                     u225_20:
  3518  0718                     i1l1714:
  3519  0718  1434               	bsf	___fldiv@grs,0
  3520  0719  2F37               	goto	i1l1726
  3521  071A                     i1l1716:
  3522  071A  3001               	movlw	1
  3523  071B  00A8               	movwf	??___fldiv
  3524  071C                     u226_25:
  3525  071C  1003               	clrc
  3526  071D  0DA4               	rlf	___fldiv@b,f
  3527  071E  0DA5               	rlf	___fldiv@b+1,f
  3528  071F  0DA6               	rlf	___fldiv@b+2,f
  3529  0720  0DA7               	rlf	___fldiv@b+3,f
  3530  0721  0BA8               	decfsz	??___fldiv,f
  3531  0722  2F1C               	goto	u226_25
  3532  0723                     i1l1718:
  3533  0723  1FB7               	btfss	___fldiv@grs+3,7
  3534  0724  2F26               	goto	u227_21
  3535  0725  2F27               	goto	u227_20
  3536  0726                     u227_21:
  3537  0726  2F28               	goto	i1l1722
  3538  0727                     u227_20:
  3539  0727                     i1l1720:
  3540  0727  1424               	bsf	___fldiv@b,0
  3541  0728                     i1l1722:
  3542  0728  3001               	movlw	1
  3543  0729  00A8               	movwf	??___fldiv
  3544  072A                     u228_25:
  3545  072A  1003               	clrc
  3546  072B  0DB4               	rlf	___fldiv@grs,f
  3547  072C  0DB5               	rlf	___fldiv@grs+1,f
  3548  072D  0DB6               	rlf	___fldiv@grs+2,f
  3549  072E  0DB7               	rlf	___fldiv@grs+3,f
  3550  072F  0BA8               	decfsz	??___fldiv,f
  3551  0730  2F2A               	goto	u228_25
  3552  0731                     i1l1724:
  3553  0731  30FF               	movlw	255
  3554  0732  07B2               	addwf	___fldiv@new_exp,f
  3555  0733  1803               	skipnc
  3556  0734  0AB3               	incf	___fldiv@new_exp+1,f
  3557  0735  30FF               	movlw	255
  3558  0736  07B3               	addwf	___fldiv@new_exp+1,f
  3559  0737                     i1l1726:
  3560  0737  1FA6               	btfss	___fldiv@b+2,7
  3561  0738  2F3A               	goto	u229_21
  3562  0739  2F3B               	goto	u229_20
  3563  073A                     u229_21:
  3564  073A  2F1A               	goto	i1l1716
  3565  073B                     u229_20:
  3566  073B                     i1l1728:
  3567  073B  01B9               	clrf	___fldiv@aexp
  3568  073C                     i1l1730:
  3569  073C  1FB7               	btfss	___fldiv@grs+3,7
  3570  073D  2F3F               	goto	u230_21
  3571  073E  2F40               	goto	u230_20
  3572  073F                     u230_21:
  3573  073F  2F5C               	goto	i1l1738
  3574  0740                     u230_20:
  3575  0740                     i1l1732:
  3576  0740  30FF               	movlw	255
  3577  0741  0534               	andwf	___fldiv@grs,w
  3578  0742  00A8               	movwf	??___fldiv
  3579  0743  30FF               	movlw	255
  3580  0744  0535               	andwf	___fldiv@grs+1,w
  3581  0745  00A9               	movwf	??___fldiv+1
  3582  0746  30FF               	movlw	255
  3583  0747  0536               	andwf	___fldiv@grs+2,w
  3584  0748  00AA               	movwf	??___fldiv+2
  3585  0749  307F               	movlw	127
  3586  074A  0537               	andwf	___fldiv@grs+3,w
  3587  074B  00AB               	movwf	??___fldiv+3
  3588  074C  082B               	movf	??___fldiv+3,w
  3589  074D  042A               	iorwf	??___fldiv+2,w
  3590  074E  0429               	iorwf	??___fldiv+1,w
  3591  074F  0428               	iorwf	??___fldiv,w
  3592  0750  1903               	skipnz
  3593  0751  2F53               	goto	u231_21
  3594  0752  2F54               	goto	u231_20
  3595  0753                     u231_21:
  3596  0753  2F57               	goto	i1l551
  3597  0754                     u231_20:
  3598  0754                     i1l1734:
  3599  0754  01B9               	clrf	___fldiv@aexp
  3600  0755  0AB9               	incf	___fldiv@aexp,f
  3601  0756  2F5C               	goto	i1l1738
  3602  0757                     i1l551:
  3603  0757  1C24               	btfss	___fldiv@b,0
  3604  0758  2F5A               	goto	u232_21
  3605  0759  2F5B               	goto	u232_20
  3606  075A                     u232_21:
  3607  075A  2F5C               	goto	i1l1738
  3608  075B                     u232_20:
  3609  075B  2F54               	goto	i1l1734
  3610  075C                     i1l1738:
  3611  075C  0839               	movf	___fldiv@aexp,w
  3612  075D  1903               	btfsc	3,2
  3613  075E  2F60               	goto	u233_21
  3614  075F  2F61               	goto	u233_20
  3615  0760                     u233_21:
  3616  0760  2F92               	goto	i1l1748
  3617  0761                     u233_20:
  3618  0761                     i1l1740:
  3619  0761  3001               	movlw	1
  3620  0762  07A4               	addwf	___fldiv@b,f
  3621  0763  3000               	movlw	0
  3622  0764  1803               	skipnc
  3623  0765  3001               	movlw	1
  3624  0766  07A5               	addwf	___fldiv@b+1,f
  3625  0767  3000               	movlw	0
  3626  0768  1803               	skipnc
  3627  0769  3001               	movlw	1
  3628  076A  07A6               	addwf	___fldiv@b+2,f
  3629  076B  3000               	movlw	0
  3630  076C  1803               	skipnc
  3631  076D  3001               	movlw	1
  3632  076E  07A7               	addwf	___fldiv@b+3,f
  3633  076F                     i1l1742:
  3634  076F  1C27               	btfss	___fldiv@b+3,0
  3635  0770  2F72               	goto	u234_21
  3636  0771  2F73               	goto	u234_20
  3637  0772                     u234_21:
  3638  0772  2F92               	goto	i1l1748
  3639  0773                     u234_20:
  3640  0773                     i1l1744:
  3641  0773  0824               	movf	___fldiv@b,w
  3642  0774  00A8               	movwf	??___fldiv
  3643  0775  0825               	movf	___fldiv@b+1,w
  3644  0776  00A9               	movwf	??___fldiv+1
  3645  0777  0826               	movf	___fldiv@b+2,w
  3646  0778  00AA               	movwf	??___fldiv+2
  3647  0779  0827               	movf	___fldiv@b+3,w
  3648  077A  00AB               	movwf	??___fldiv+3
  3649  077B  3001               	movlw	1
  3650  077C  00AC               	movwf	??___fldiv+4
  3651  077D                     u235_25:
  3652  077D  0D2B               	rlf	??___fldiv+3,w
  3653  077E  0CAB               	rrf	??___fldiv+3,f
  3654  077F  0CAA               	rrf	??___fldiv+2,f
  3655  0780  0CA9               	rrf	??___fldiv+1,f
  3656  0781  0CA8               	rrf	??___fldiv,f
  3657  0782                     u235_20:
  3658  0782  0BAC               	decfsz	??___fldiv+4,f
  3659  0783  2F7D               	goto	u235_25
  3660  0784  082B               	movf	??___fldiv+3,w
  3661  0785  00A7               	movwf	___fldiv@b+3
  3662  0786  082A               	movf	??___fldiv+2,w
  3663  0787  00A6               	movwf	___fldiv@b+2
  3664  0788  0829               	movf	??___fldiv+1,w
  3665  0789  00A5               	movwf	___fldiv@b+1
  3666  078A  0828               	movf	??___fldiv,w
  3667  078B  00A4               	movwf	___fldiv@b
  3668  078C                     i1l1746:
  3669  078C  3001               	movlw	1
  3670  078D  07B2               	addwf	___fldiv@new_exp,f
  3671  078E  1803               	skipnc
  3672  078F  0AB3               	incf	___fldiv@new_exp+1,f
  3673  0790  3000               	movlw	0
  3674  0791  07B3               	addwf	___fldiv@new_exp+1,f
  3675  0792                     i1l1748:
  3676  0792  0833               	movf	___fldiv@new_exp+1,w
  3677  0793  3A80               	xorlw	128
  3678  0794  00FF               	movwf	btemp+1
  3679  0795  3080               	movlw	128
  3680  0796  027F               	subwf	btemp+1,w
  3681  0797  1D03               	skipz
  3682  0798  2F9B               	goto	u236_25
  3683  0799  30FF               	movlw	255
  3684  079A  0232               	subwf	___fldiv@new_exp,w
  3685  079B                     u236_25:
  3686  079B  1C03               	skipc
  3687  079C  2F9E               	goto	u236_21
  3688  079D  2F9F               	goto	u236_20
  3689  079E                     u236_21:
  3690  079E  2FAD               	goto	i1l1752
  3691  079F                     u236_20:
  3692  079F                     i1l1750:
  3693  079F  30FF               	movlw	255
  3694  07A0  1283               	bcf	3,5	;RP0=0, select bank0
  3695  07A1  1303               	bcf	3,6	;RP1=0, select bank0
  3696  07A2  00B2               	movwf	___fldiv@new_exp
  3697  07A3  3000               	movlw	0
  3698  07A4  00B3               	movwf	___fldiv@new_exp+1
  3699  07A5  3000               	movlw	0
  3700  07A6  00A7               	movwf	___fldiv@b+3
  3701  07A7  3000               	movlw	0
  3702  07A8  00A6               	movwf	___fldiv@b+2
  3703  07A9  3000               	movlw	0
  3704  07AA  00A5               	movwf	___fldiv@b+1
  3705  07AB  3000               	movlw	0
  3706  07AC  00A4               	movwf	___fldiv@b
  3707  07AD                     i1l1752:
  3708  07AD  1283               	bcf	3,5	;RP0=0, select bank0
  3709  07AE  1303               	bcf	3,6	;RP1=0, select bank0
  3710  07AF  0833               	movf	___fldiv@new_exp+1,w
  3711  07B0  3A80               	xorlw	128
  3712  07B1  00FF               	movwf	btemp+1
  3713  07B2  3080               	movlw	128
  3714  07B3  027F               	subwf	btemp+1,w
  3715  07B4  1D03               	skipz
  3716  07B5  2FB8               	goto	u237_25
  3717  07B6  3001               	movlw	1
  3718  07B7  0232               	subwf	___fldiv@new_exp,w
  3719  07B8                     u237_25:
  3720  07B8  1803               	skipnc
  3721  07B9  2FBB               	goto	u237_21
  3722  07BA  2FBC               	goto	u237_20
  3723  07BB                     u237_21:
  3724  07BB  2FC9               	goto	i1l557
  3725  07BC                     u237_20:
  3726  07BC                     i1l1754:
  3727  07BC  1283               	bcf	3,5	;RP0=0, select bank0
  3728  07BD  1303               	bcf	3,6	;RP1=0, select bank0
  3729  07BE  01B2               	clrf	___fldiv@new_exp
  3730  07BF  01B3               	clrf	___fldiv@new_exp+1
  3731  07C0                     i1l1756:
  3732  07C0  3000               	movlw	0
  3733  07C1  00A7               	movwf	___fldiv@b+3
  3734  07C2  3000               	movlw	0
  3735  07C3  00A6               	movwf	___fldiv@b+2
  3736  07C4  3000               	movlw	0
  3737  07C5  00A5               	movwf	___fldiv@b+1
  3738  07C6  3000               	movlw	0
  3739  07C7  00A4               	movwf	___fldiv@b
  3740  07C8                     i1l1758:
  3741  07C8  01B1               	clrf	___fldiv@sign
  3742  07C9                     i1l557:
  3743  07C9  1283               	bcf	3,5	;RP0=0, select bank0
  3744  07CA  1303               	bcf	3,6	;RP1=0, select bank0
  3745  07CB  0832               	movf	___fldiv@new_exp,w
  3746  07CC  00A8               	movwf	??___fldiv
  3747  07CD  0828               	movf	??___fldiv,w
  3748  07CE  00B8               	movwf	___fldiv@bexp
  3749  07CF                     i1l1760:
  3750  07CF  1C38               	btfss	___fldiv@bexp,0
  3751  07D0  2FD2               	goto	u238_21
  3752  07D1  2FD3               	goto	u238_20
  3753  07D2                     u238_21:
  3754  07D2  2FD5               	goto	i1l1764
  3755  07D3                     u238_20:
  3756  07D3                     i1l1762:
  3757  07D3  17A6               	bsf	___fldiv@b+2,7
  3758  07D4  2FD9               	goto	i1l559
  3759  07D5                     i1l1764:
  3760  07D5  307F               	movlw	127
  3761  07D6  00A8               	movwf	??___fldiv
  3762  07D7  0828               	movf	??___fldiv,w
  3763  07D8  05A6               	andwf	___fldiv@b+2,f
  3764  07D9                     i1l559:
  3765  07D9  0838               	movf	___fldiv@bexp,w
  3766  07DA  00A8               	movwf	??___fldiv
  3767  07DB  1003               	clrc
  3768  07DC  0C28               	rrf	??___fldiv,w
  3769  07DD  00A9               	movwf	??___fldiv+1
  3770  07DE  0829               	movf	??___fldiv+1,w
  3771  07DF  00A7               	movwf	___fldiv@b+3
  3772  07E0  0831               	movf	___fldiv@sign,w
  3773  07E1  00A8               	movwf	??___fldiv
  3774  07E2  0828               	movf	??___fldiv,w
  3775  07E3  04A7               	iorwf	___fldiv@b+3,f
  3776  07E4  2E7D               	goto	i1l1672
  3777  07E5                     i1l537:
  3778  07E5  0008               	return
  3779  07E6                     __end_of___fldiv:
  3780                           
  3781                           	psect	text9
  3782  0381                     __ptext9:	
  3783 ;; *************** function ___fladd *****************
  3784 ;; Defined at:
  3785 ;;		line 10 in file "C:\Program Files\Microchip\xc8\v2.35\pic\sources\c90\common\sprcadd.c"
  3786 ;; Parameters:    Size  Location     Type
  3787 ;;  b               4   52[BANK0 ] unsigned char 
  3788 ;;  a               4   56[BANK0 ] unsigned char 
  3789 ;; Auto vars:     Size  Location     Type
  3790 ;;  grs             1   71[BANK0 ] unsigned char 
  3791 ;;  bexp            1   70[BANK0 ] unsigned char 
  3792 ;;  aexp            1   69[BANK0 ] unsigned char 
  3793 ;;  signs           1   68[BANK0 ] unsigned char 
  3794 ;; Return value:  Size  Location     Type
  3795 ;;                  4   52[BANK0 ] unsigned char 
  3796 ;; Registers used:
  3797 ;;		wreg, status,2, status,0, btemp+1
  3798 ;; Tracked objects:
  3799 ;;		On entry : 0/0
  3800 ;;		On exit  : 0/0
  3801 ;;		Unchanged: 0/0
  3802 ;; Data sizes:     COMMON   BANK0   BANK1   BANK3   BANK2
  3803 ;;      Params:         0       8       0       0       0
  3804 ;;      Locals:         0       4       0       0       0
  3805 ;;      Temps:          0       8       0       0       0
  3806 ;;      Totals:         0      20       0       0       0
  3807 ;;Total ram usage:       20 bytes
  3808 ;; Hardware stack levels used: 1
  3809 ;; This function calls:
  3810 ;;		Nothing
  3811 ;; This function is called by:
  3812 ;;		_map
  3813 ;; This function uses a non-reentrant model
  3814 ;;
  3815                           
  3816  0381                     ___fladd:	
  3817                           ;psect for function ___fladd
  3818                           
  3819  0381                     i1l1434:	
  3820                           ;incstack = 0
  3821                           ; Regs used in ___fladd: [wreg+status,2+status,0+btemp+1]
  3822                           
  3823  0381  1283               	bcf	3,5	;RP0=0, select bank0
  3824  0382  1303               	bcf	3,6	;RP1=0, select bank0
  3825  0383  0857               	movf	___fladd@b+3,w
  3826  0384  3980               	andlw	128
  3827  0385  00DC               	movwf	??___fladd
  3828  0386  085C               	movf	??___fladd,w
  3829  0387  00E4               	movwf	___fladd@signs
  3830  0388                     i1l1436:
  3831  0388  0857               	movf	___fladd@b+3,w
  3832  0389  00DC               	movwf	??___fladd
  3833  038A  075C               	addwf	??___fladd,w
  3834  038B  00DD               	movwf	??___fladd+1
  3835  038C  085D               	movf	??___fladd+1,w
  3836  038D  00E6               	movwf	___fladd@bexp
  3837  038E                     i1l1438:
  3838  038E  1FD6               	btfss	___fladd@b+2,7
  3839  038F  2B91               	goto	u164_21
  3840  0390  2B92               	goto	u164_20
  3841  0391                     u164_21:
  3842  0391  2B93               	goto	i1l1442
  3843  0392                     u164_20:
  3844  0392                     i1l1440:
  3845  0392  1466               	bsf	___fladd@bexp,0
  3846  0393                     i1l1442:
  3847  0393  0866               	movf	___fladd@bexp,w
  3848  0394  1903               	btfsc	3,2
  3849  0395  2B97               	goto	u165_21
  3850  0396  2B98               	goto	u165_20
  3851  0397                     u165_21:
  3852  0397  2BA8               	goto	i1l1452
  3853  0398                     u165_20:
  3854  0398                     i1l1444:
  3855  0398  0A66               	incf	___fladd@bexp,w
  3856  0399  1D03               	btfss	3,2
  3857  039A  2B9C               	goto	u166_21
  3858  039B  2B9D               	goto	u166_20
  3859  039C                     u166_21:
  3860  039C  2BA5               	goto	i1l1448
  3861  039D                     u166_20:
  3862  039D                     i1l1446:
  3863  039D  3000               	movlw	0
  3864  039E  00D7               	movwf	___fladd@b+3
  3865  039F  3000               	movlw	0
  3866  03A0  00D6               	movwf	___fladd@b+2
  3867  03A1  3000               	movlw	0
  3868  03A2  00D5               	movwf	___fladd@b+1
  3869  03A3  3000               	movlw	0
  3870  03A4  00D4               	movwf	___fladd@b
  3871  03A5                     i1l1448:
  3872  03A5  17D6               	bsf	___fladd@b+2,7
  3873  03A6                     i1l1450:
  3874  03A6  01D7               	clrf	___fladd@b+3
  3875  03A7  2BB0               	goto	i1l1454
  3876  03A8                     i1l1452:
  3877  03A8  3000               	movlw	0
  3878  03A9  00D7               	movwf	___fladd@b+3
  3879  03AA  3000               	movlw	0
  3880  03AB  00D6               	movwf	___fladd@b+2
  3881  03AC  3000               	movlw	0
  3882  03AD  00D5               	movwf	___fladd@b+1
  3883  03AE  3000               	movlw	0
  3884  03AF  00D4               	movwf	___fladd@b
  3885  03B0                     i1l1454:
  3886  03B0  085B               	movf	___fladd@a+3,w
  3887  03B1  3980               	andlw	128
  3888  03B2  00DC               	movwf	??___fladd
  3889  03B3  085C               	movf	??___fladd,w
  3890  03B4  00E5               	movwf	___fladd@aexp
  3891  03B5                     i1l1456:
  3892  03B5  0865               	movf	___fladd@aexp,w
  3893  03B6  0664               	xorwf	___fladd@signs,w
  3894  03B7  1903               	skipnz
  3895  03B8  2BBA               	goto	u167_21
  3896  03B9  2BBB               	goto	u167_20
  3897  03BA                     u167_21:
  3898  03BA  2BBC               	goto	i1l1460
  3899  03BB                     u167_20:
  3900  03BB                     i1l1458:
  3901  03BB  1764               	bsf	___fladd@signs,6
  3902  03BC                     i1l1460:
  3903  03BC  085B               	movf	___fladd@a+3,w
  3904  03BD  00DC               	movwf	??___fladd
  3905  03BE  075C               	addwf	??___fladd,w
  3906  03BF  00DD               	movwf	??___fladd+1
  3907  03C0  085D               	movf	??___fladd+1,w
  3908  03C1  00E5               	movwf	___fladd@aexp
  3909  03C2                     i1l1462:
  3910  03C2  1FDA               	btfss	___fladd@a+2,7
  3911  03C3  2BC5               	goto	u168_21
  3912  03C4  2BC6               	goto	u168_20
  3913  03C5                     u168_21:
  3914  03C5  2BC7               	goto	i1l1466
  3915  03C6                     u168_20:
  3916  03C6                     i1l1464:
  3917  03C6  1465               	bsf	___fladd@aexp,0
  3918  03C7                     i1l1466:
  3919  03C7  0865               	movf	___fladd@aexp,w
  3920  03C8  1903               	btfsc	3,2
  3921  03C9  2BCB               	goto	u169_21
  3922  03CA  2BCC               	goto	u169_20
  3923  03CB                     u169_21:
  3924  03CB  2BDC               	goto	i1l1476
  3925  03CC                     u169_20:
  3926  03CC                     i1l1468:
  3927  03CC  0A65               	incf	___fladd@aexp,w
  3928  03CD  1D03               	btfss	3,2
  3929  03CE  2BD0               	goto	u170_21
  3930  03CF  2BD1               	goto	u170_20
  3931  03D0                     u170_21:
  3932  03D0  2BD9               	goto	i1l1472
  3933  03D1                     u170_20:
  3934  03D1                     i1l1470:
  3935  03D1  3000               	movlw	0
  3936  03D2  00DB               	movwf	___fladd@a+3
  3937  03D3  3000               	movlw	0
  3938  03D4  00DA               	movwf	___fladd@a+2
  3939  03D5  3000               	movlw	0
  3940  03D6  00D9               	movwf	___fladd@a+1
  3941  03D7  3000               	movlw	0
  3942  03D8  00D8               	movwf	___fladd@a
  3943  03D9                     i1l1472:
  3944  03D9  17DA               	bsf	___fladd@a+2,7
  3945  03DA                     i1l1474:
  3946  03DA  01DB               	clrf	___fladd@a+3
  3947  03DB  2BE4               	goto	i1l479
  3948  03DC                     i1l1476:
  3949  03DC  3000               	movlw	0
  3950  03DD  00DB               	movwf	___fladd@a+3
  3951  03DE  3000               	movlw	0
  3952  03DF  00DA               	movwf	___fladd@a+2
  3953  03E0  3000               	movlw	0
  3954  03E1  00D9               	movwf	___fladd@a+1
  3955  03E2  3000               	movlw	0
  3956  03E3  00D8               	movwf	___fladd@a
  3957  03E4                     i1l479:
  3958  03E4  0866               	movf	___fladd@bexp,w
  3959  03E5  0265               	subwf	___fladd@aexp,w
  3960  03E6  1803               	skipnc
  3961  03E7  2BE9               	goto	u171_21
  3962  03E8  2BEA               	goto	u171_20
  3963  03E9                     u171_21:
  3964  03E9  2C2E               	goto	i1l1512
  3965  03EA                     u171_20:
  3966  03EA                     i1l1478:
  3967  03EA  1F64               	btfss	___fladd@signs,6
  3968  03EB  2BED               	goto	u172_21
  3969  03EC  2BEE               	goto	u172_20
  3970  03ED                     u172_21:
  3971  03ED  2BF2               	goto	i1l1482
  3972  03EE                     u172_20:
  3973  03EE                     i1l1480:
  3974  03EE  3080               	movlw	128
  3975  03EF  00DC               	movwf	??___fladd
  3976  03F0  085C               	movf	??___fladd,w
  3977  03F1  06E4               	xorwf	___fladd@signs,f
  3978  03F2                     i1l1482:
  3979  03F2  0866               	movf	___fladd@bexp,w
  3980  03F3  00DC               	movwf	??___fladd
  3981  03F4  085C               	movf	??___fladd,w
  3982  03F5  00E7               	movwf	___fladd@grs
  3983  03F6                     i1l1484:
  3984  03F6  0865               	movf	___fladd@aexp,w
  3985  03F7  00DC               	movwf	??___fladd
  3986  03F8  085C               	movf	??___fladd,w
  3987  03F9  00E6               	movwf	___fladd@bexp
  3988  03FA                     i1l1486:
  3989  03FA  0867               	movf	___fladd@grs,w
  3990  03FB  00DC               	movwf	??___fladd
  3991  03FC  085C               	movf	??___fladd,w
  3992  03FD  00E5               	movwf	___fladd@aexp
  3993  03FE                     i1l1488:
  3994  03FE  0854               	movf	___fladd@b,w
  3995  03FF  00DC               	movwf	??___fladd
  3996  0400  085C               	movf	??___fladd,w
  3997  0401  00E7               	movwf	___fladd@grs
  3998  0402                     i1l1490:
  3999  0402  0858               	movf	___fladd@a,w
  4000  0403  00DC               	movwf	??___fladd
  4001  0404  085C               	movf	??___fladd,w
  4002  0405  00D4               	movwf	___fladd@b
  4003  0406                     i1l1492:
  4004  0406  0867               	movf	___fladd@grs,w
  4005  0407  00DC               	movwf	??___fladd
  4006  0408  085C               	movf	??___fladd,w
  4007  0409  00D8               	movwf	___fladd@a
  4008  040A                     i1l1494:
  4009  040A  0855               	movf	___fladd@b+1,w
  4010  040B  00DC               	movwf	??___fladd
  4011  040C  085C               	movf	??___fladd,w
  4012  040D  00E7               	movwf	___fladd@grs
  4013  040E                     i1l1496:
  4014  040E  0859               	movf	___fladd@a+1,w
  4015  040F  00DC               	movwf	??___fladd
  4016  0410  085C               	movf	??___fladd,w
  4017  0411  00D5               	movwf	___fladd@b+1
  4018  0412                     i1l1498:
  4019  0412  0867               	movf	___fladd@grs,w
  4020  0413  00DC               	movwf	??___fladd
  4021  0414  085C               	movf	??___fladd,w
  4022  0415  00D9               	movwf	___fladd@a+1
  4023  0416                     i1l1500:
  4024  0416  0856               	movf	___fladd@b+2,w
  4025  0417  00DC               	movwf	??___fladd
  4026  0418  085C               	movf	??___fladd,w
  4027  0419  00E7               	movwf	___fladd@grs
  4028  041A                     i1l1502:
  4029  041A  085A               	movf	___fladd@a+2,w
  4030  041B  00DC               	movwf	??___fladd
  4031  041C  085C               	movf	??___fladd,w
  4032  041D  00D6               	movwf	___fladd@b+2
  4033  041E                     i1l1504:
  4034  041E  0867               	movf	___fladd@grs,w
  4035  041F  00DC               	movwf	??___fladd
  4036  0420  085C               	movf	??___fladd,w
  4037  0421  00DA               	movwf	___fladd@a+2
  4038  0422                     i1l1506:
  4039  0422  0857               	movf	___fladd@b+3,w
  4040  0423  00DC               	movwf	??___fladd
  4041  0424  085C               	movf	??___fladd,w
  4042  0425  00E7               	movwf	___fladd@grs
  4043  0426                     i1l1508:
  4044  0426  085B               	movf	___fladd@a+3,w
  4045  0427  00DC               	movwf	??___fladd
  4046  0428  085C               	movf	??___fladd,w
  4047  0429  00D7               	movwf	___fladd@b+3
  4048  042A                     i1l1510:
  4049  042A  0867               	movf	___fladd@grs,w
  4050  042B  00DC               	movwf	??___fladd
  4051  042C  085C               	movf	??___fladd,w
  4052  042D  00DB               	movwf	___fladd@a+3
  4053  042E                     i1l1512:
  4054  042E  01E7               	clrf	___fladd@grs
  4055  042F                     i1l1514:
  4056  042F  0865               	movf	___fladd@aexp,w
  4057  0430  00DC               	movwf	??___fladd
  4058  0431  01DD               	clrf	??___fladd+1
  4059  0432  085D               	movf	??___fladd+1,w
  4060  0433  00DF               	movwf	??___fladd+3
  4061  0434  0866               	movf	___fladd@bexp,w
  4062  0435  025C               	subwf	??___fladd,w
  4063  0436  00DE               	movwf	??___fladd+2
  4064  0437  1C03               	skipc
  4065  0438  03DF               	decf	??___fladd+3,f
  4066  0439  085F               	movf	??___fladd+3,w
  4067  043A  3A80               	xorlw	128
  4068  043B  00FF               	movwf	btemp+1
  4069  043C  3080               	movlw	128
  4070  043D  027F               	subwf	btemp+1,w
  4071  043E  1D03               	skipz
  4072  043F  2C42               	goto	u173_25
  4073  0440  301A               	movlw	26
  4074  0441  025E               	subwf	??___fladd+2,w
  4075  0442                     u173_25:
  4076  0442  1C03               	skipc
  4077  0443  2C45               	goto	u173_21
  4078  0444  2C46               	goto	u173_20
  4079  0445                     u173_21:
  4080  0445  2C83               	goto	i1l1530
  4081  0446                     u173_20:
  4082  0446                     i1l1516:
  4083  0446  1283               	bcf	3,5	;RP0=0, select bank0
  4084  0447  1303               	bcf	3,6	;RP1=0, select bank0
  4085  0448  0857               	movf	___fladd@b+3,w
  4086  0449  0456               	iorwf	___fladd@b+2,w
  4087  044A  0455               	iorwf	___fladd@b+1,w
  4088  044B  0454               	iorwf	___fladd@b,w
  4089  044C  1D03               	skipz
  4090  044D  2C4F               	goto	u174_21
  4091  044E  2C51               	goto	u174_20
  4092  044F                     u174_21:
  4093  044F  3001               	movlw	1
  4094  0450  2C52               	goto	u175_20
  4095  0451                     u174_20:
  4096  0451  3000               	movlw	0
  4097  0452                     u175_20:
  4098  0452  00DC               	movwf	??___fladd
  4099  0453  085C               	movf	??___fladd,w
  4100  0454  00E7               	movwf	___fladd@grs
  4101  0455  3000               	movlw	0
  4102  0456  00D7               	movwf	___fladd@b+3
  4103  0457  3000               	movlw	0
  4104  0458  00D6               	movwf	___fladd@b+2
  4105  0459  3000               	movlw	0
  4106  045A  00D5               	movwf	___fladd@b+1
  4107  045B  3000               	movlw	0
  4108  045C  00D4               	movwf	___fladd@b
  4109  045D  0865               	movf	___fladd@aexp,w
  4110  045E  00DC               	movwf	??___fladd
  4111  045F  085C               	movf	??___fladd,w
  4112  0460  00E6               	movwf	___fladd@bexp
  4113  0461  2C8B               	goto	i1l483
  4114  0462                     i1l485:
  4115  0462  1C67               	btfss	___fladd@grs,0
  4116  0463  2C65               	goto	u176_21
  4117  0464  2C66               	goto	u176_20
  4118  0465                     u176_21:
  4119  0465  2C6F               	goto	i1l1520
  4120  0466                     u176_20:
  4121  0466                     i1l1518:
  4122  0466  0867               	movf	___fladd@grs,w
  4123  0467  00DC               	movwf	??___fladd
  4124  0468  1003               	clrc
  4125  0469  0C5C               	rrf	??___fladd,w
  4126  046A  3801               	iorlw	1
  4127  046B  00DD               	movwf	??___fladd+1
  4128  046C  085D               	movf	??___fladd+1,w
  4129  046D  00E7               	movwf	___fladd@grs
  4130  046E  2C71               	goto	i1l1522
  4131  046F                     i1l1520:
  4132  046F  1003               	clrc
  4133  0470  0CE7               	rrf	___fladd@grs,f
  4134  0471                     i1l1522:
  4135  0471  1C54               	btfss	___fladd@b,0
  4136  0472  2C74               	goto	u177_21
  4137  0473  2C75               	goto	u177_20
  4138  0474                     u177_21:
  4139  0474  2C76               	goto	i1l1526
  4140  0475                     u177_20:
  4141  0475                     i1l1524:
  4142  0475  17E7               	bsf	___fladd@grs,7
  4143  0476                     i1l1526:
  4144  0476  3001               	movlw	1
  4145  0477  00DC               	movwf	??___fladd
  4146  0478                     u178_25:
  4147  0478  0D57               	rlf	___fladd@b+3,w
  4148  0479  0CD7               	rrf	___fladd@b+3,f
  4149  047A  0CD6               	rrf	___fladd@b+2,f
  4150  047B  0CD5               	rrf	___fladd@b+1,f
  4151  047C  0CD4               	rrf	___fladd@b,f
  4152  047D  0BDC               	decfsz	??___fladd& (0+127),f
  4153  047E  2C78               	goto	u178_25
  4154  047F                     i1l1528:
  4155  047F  3001               	movlw	1
  4156  0480  00DC               	movwf	??___fladd
  4157  0481  085C               	movf	??___fladd,w
  4158  0482  07E6               	addwf	___fladd@bexp,f
  4159  0483                     i1l1530:
  4160  0483  1283               	bcf	3,5	;RP0=0, select bank0
  4161  0484  1303               	bcf	3,6	;RP1=0, select bank0
  4162  0485  0865               	movf	___fladd@aexp,w
  4163  0486  0266               	subwf	___fladd@bexp,w
  4164  0487  1C03               	skipc
  4165  0488  2C8A               	goto	u179_21
  4166  0489  2C8B               	goto	u179_20
  4167  048A                     u179_21:
  4168  048A  2C62               	goto	i1l485
  4169  048B                     u179_20:
  4170  048B                     i1l483:
  4171  048B  1B64               	btfsc	___fladd@signs,6
  4172  048C  2C8E               	goto	u180_21
  4173  048D  2C8F               	goto	u180_20
  4174  048E                     u180_21:
  4175  048E  2CDA               	goto	i1l1556
  4176  048F                     u180_20:
  4177  048F                     i1l1532:
  4178  048F  0866               	movf	___fladd@bexp,w
  4179  0490  1D03               	btfss	3,2
  4180  0491  2C93               	goto	u181_21
  4181  0492  2C94               	goto	u181_20
  4182  0493                     u181_21:
  4183  0493  2C9D               	goto	i1l1538
  4184  0494                     u181_20:
  4185  0494                     i1l1534:
  4186  0494  3000               	movlw	0
  4187  0495  00D7               	movwf	?___fladd+3
  4188  0496  3000               	movlw	0
  4189  0497  00D6               	movwf	?___fladd+2
  4190  0498  3000               	movlw	0
  4191  0499  00D5               	movwf	?___fladd+1
  4192  049A  3000               	movlw	0
  4193  049B  00D4               	movwf	?___fladd
  4194  049C  2E08               	goto	i1l492
  4195  049D                     i1l1538:
  4196  049D  0858               	movf	___fladd@a,w
  4197  049E  07D4               	addwf	___fladd@b,f
  4198  049F  0859               	movf	___fladd@a+1,w
  4199  04A0  1103               	clrz
  4200  04A1  1803               	skipnc
  4201  04A2  3E01               	addlw	1
  4202  04A3  1903               	skipnz
  4203  04A4  2CA6               	goto	u182_21
  4204  04A5  07D5               	addwf	___fladd@b+1,f
  4205  04A6                     u182_21:
  4206  04A6  085A               	movf	___fladd@a+2,w
  4207  04A7  1103               	clrz
  4208  04A8  1803               	skipnc
  4209  04A9  3E01               	addlw	1
  4210  04AA  1903               	skipnz
  4211  04AB  2CAD               	goto	u182_22
  4212  04AC  07D6               	addwf	___fladd@b+2,f
  4213  04AD                     u182_22:
  4214  04AD  085B               	movf	___fladd@a+3,w
  4215  04AE  1103               	clrz
  4216  04AF  1803               	skipnc
  4217  04B0  3E01               	addlw	1
  4218  04B1  1903               	skipnz
  4219  04B2  2CB4               	goto	u182_23
  4220  04B3  07D7               	addwf	___fladd@b+3,f
  4221  04B4                     u182_23:
  4222  04B4                     i1l1540:
  4223  04B4  1C57               	btfss	___fladd@b+3,0
  4224  04B5  2CB7               	goto	u183_21
  4225  04B6  2CB8               	goto	u183_20
  4226  04B7                     u183_21:
  4227  04B7  2D8E               	goto	i1l1590
  4228  04B8                     u183_20:
  4229  04B8                     i1l1542:
  4230  04B8  1C67               	btfss	___fladd@grs,0
  4231  04B9  2CBB               	goto	u184_21
  4232  04BA  2CBC               	goto	u184_20
  4233  04BB                     u184_21:
  4234  04BB  2CC5               	goto	i1l1546
  4235  04BC                     u184_20:
  4236  04BC                     i1l1544:
  4237  04BC  0867               	movf	___fladd@grs,w
  4238  04BD  00DC               	movwf	??___fladd
  4239  04BE  1003               	clrc
  4240  04BF  0C5C               	rrf	??___fladd,w
  4241  04C0  3801               	iorlw	1
  4242  04C1  00DD               	movwf	??___fladd+1
  4243  04C2  085D               	movf	??___fladd+1,w
  4244  04C3  00E7               	movwf	___fladd@grs
  4245  04C4  2CC7               	goto	i1l1548
  4246  04C5                     i1l1546:
  4247  04C5  1003               	clrc
  4248  04C6  0CE7               	rrf	___fladd@grs,f
  4249  04C7                     i1l1548:
  4250  04C7  1C54               	btfss	___fladd@b,0
  4251  04C8  2CCA               	goto	u185_21
  4252  04C9  2CCB               	goto	u185_20
  4253  04CA                     u185_21:
  4254  04CA  2CCC               	goto	i1l1552
  4255  04CB                     u185_20:
  4256  04CB                     i1l1550:
  4257  04CB  17E7               	bsf	___fladd@grs,7
  4258  04CC                     i1l1552:
  4259  04CC  3001               	movlw	1
  4260  04CD  00DC               	movwf	??___fladd
  4261  04CE                     u186_25:
  4262  04CE  0D57               	rlf	___fladd@b+3,w
  4263  04CF  0CD7               	rrf	___fladd@b+3,f
  4264  04D0  0CD6               	rrf	___fladd@b+2,f
  4265  04D1  0CD5               	rrf	___fladd@b+1,f
  4266  04D2  0CD4               	rrf	___fladd@b,f
  4267  04D3  0BDC               	decfsz	??___fladd& (0+127),f
  4268  04D4  2CCE               	goto	u186_25
  4269  04D5                     i1l1554:
  4270  04D5  3001               	movlw	1
  4271  04D6  00DC               	movwf	??___fladd
  4272  04D7  085C               	movf	??___fladd,w
  4273  04D8  07E6               	addwf	___fladd@bexp,f
  4274  04D9  2D8E               	goto	i1l1590
  4275  04DA                     i1l1556:
  4276  04DA  0857               	movf	___fladd@b+3,w
  4277  04DB  3A80               	xorlw	128
  4278  04DC  00FF               	movwf	btemp+1
  4279  04DD  085B               	movf	___fladd@a+3,w
  4280  04DE  3A80               	xorlw	128
  4281  04DF  027F               	subwf	btemp+1,w
  4282  04E0  1D03               	skipz
  4283  04E1  2CEC               	goto	u187_23
  4284  04E2  085A               	movf	___fladd@a+2,w
  4285  04E3  0256               	subwf	___fladd@b+2,w
  4286  04E4  1D03               	skipz
  4287  04E5  2CEC               	goto	u187_23
  4288  04E6  0859               	movf	___fladd@a+1,w
  4289  04E7  0255               	subwf	___fladd@b+1,w
  4290  04E8  1D03               	skipz
  4291  04E9  2CEC               	goto	u187_23
  4292  04EA  0858               	movf	___fladd@a,w
  4293  04EB  0254               	subwf	___fladd@b,w
  4294  04EC                     u187_23:
  4295  04EC  1803               	skipnc
  4296  04ED  2CEF               	goto	u187_21
  4297  04EE  2CF0               	goto	u187_20
  4298  04EF                     u187_21:
  4299  04EF  2D48               	goto	i1l1566
  4300  04F0                     u187_20:
  4301  04F0                     i1l1558:
  4302  04F0  30FF               	movlw	255
  4303  04F1  00DC               	movwf	??___fladd
  4304  04F2  30FF               	movlw	255
  4305  04F3  00DD               	movwf	??___fladd+1
  4306  04F4  30FF               	movlw	255
  4307  04F5  00DE               	movwf	??___fladd+2
  4308  04F6  30FF               	movlw	255
  4309  04F7  00DF               	movwf	??___fladd+3
  4310  04F8  0858               	movf	___fladd@a,w
  4311  04F9  00E0               	movwf	??___fladd+4
  4312  04FA  0859               	movf	___fladd@a+1,w
  4313  04FB  00E1               	movwf	??___fladd+5
  4314  04FC  085A               	movf	___fladd@a+2,w
  4315  04FD  00E2               	movwf	??___fladd+6
  4316  04FE  085B               	movf	___fladd@a+3,w
  4317  04FF  00E3               	movwf	??___fladd+7
  4318  0500  0854               	movf	___fladd@b,w
  4319  0501  02E0               	subwf	??___fladd+4,f
  4320  0502  0855               	movf	___fladd@b+1,w
  4321  0503  1C03               	skipc
  4322  0504  0F55               	incfsz	___fladd@b+1,w
  4323  0505  2D07               	goto	u188_21
  4324  0506  2D08               	goto	u188_22
  4325  0507                     u188_21:
  4326  0507  02E1               	subwf	??___fladd+5,f
  4327  0508                     u188_22:
  4328  0508  0856               	movf	___fladd@b+2,w
  4329  0509  1C03               	skipc
  4330  050A  0F56               	incfsz	___fladd@b+2,w
  4331  050B  2D0D               	goto	u188_23
  4332  050C  2D0E               	goto	u188_24
  4333  050D                     u188_23:
  4334  050D  02E2               	subwf	??___fladd+6,f
  4335  050E                     u188_24:
  4336  050E  0857               	movf	___fladd@b+3,w
  4337  050F  1C03               	skipc
  4338  0510  0F57               	incfsz	___fladd@b+3,w
  4339  0511  2D13               	goto	u188_25
  4340  0512  2D14               	goto	u188_26
  4341  0513                     u188_25:
  4342  0513  02E3               	subwf	??___fladd+7,f
  4343  0514                     u188_26:
  4344  0514  0860               	movf	??___fladd+4,w
  4345  0515  07DC               	addwf	??___fladd,f
  4346  0516  0861               	movf	??___fladd+5,w
  4347  0517  1803               	skipnc
  4348  0518  0F61               	incfsz	??___fladd+5,w
  4349  0519  2D1B               	goto	u189_20
  4350  051A  2D1C               	goto	u189_21
  4351  051B                     u189_20:
  4352  051B  07DD               	addwf	??___fladd+1,f
  4353  051C                     u189_21:
  4354  051C  0862               	movf	??___fladd+6,w
  4355  051D  1803               	skipnc
  4356  051E  0F62               	incfsz	??___fladd+6,w
  4357  051F  2D21               	goto	u189_22
  4358  0520  2D22               	goto	u189_23
  4359  0521                     u189_22:
  4360  0521  07DE               	addwf	??___fladd+2,f
  4361  0522                     u189_23:
  4362  0522  0863               	movf	??___fladd+7,w
  4363  0523  1803               	skipnc
  4364  0524  0A63               	incf	??___fladd+7,w
  4365  0525  07DF               	addwf	??___fladd+3,f
  4366  0526  085F               	movf	??___fladd+3,w
  4367  0527  00D7               	movwf	___fladd@b+3
  4368  0528  085E               	movf	??___fladd+2,w
  4369  0529  00D6               	movwf	___fladd@b+2
  4370  052A  085D               	movf	??___fladd+1,w
  4371  052B  00D5               	movwf	___fladd@b+1
  4372  052C  085C               	movf	??___fladd,w
  4373  052D  00D4               	movwf	___fladd@b
  4374  052E                     i1l1560:
  4375  052E  3080               	movlw	128
  4376  052F  00DC               	movwf	??___fladd
  4377  0530  085C               	movf	??___fladd,w
  4378  0531  06E4               	xorwf	___fladd@signs,f
  4379  0532  09E7               	comf	___fladd@grs,f
  4380  0533  0AE7               	incf	___fladd@grs,f
  4381  0534                     i1l1562:
  4382  0534  0867               	movf	___fladd@grs,w
  4383  0535  1D03               	btfss	3,2
  4384  0536  2D38               	goto	u190_21
  4385  0537  2D39               	goto	u190_20
  4386  0538                     u190_21:
  4387  0538  2D56               	goto	i1l500
  4388  0539                     u190_20:
  4389  0539                     i1l1564:
  4390  0539  3001               	movlw	1
  4391  053A  07D4               	addwf	___fladd@b,f
  4392  053B  3000               	movlw	0
  4393  053C  1803               	skipnc
  4394  053D  3001               	movlw	1
  4395  053E  07D5               	addwf	___fladd@b+1,f
  4396  053F  3000               	movlw	0
  4397  0540  1803               	skipnc
  4398  0541  3001               	movlw	1
  4399  0542  07D6               	addwf	___fladd@b+2,f
  4400  0543  3000               	movlw	0
  4401  0544  1803               	skipnc
  4402  0545  3001               	movlw	1
  4403  0546  07D7               	addwf	___fladd@b+3,f
  4404  0547  2D56               	goto	i1l500
  4405  0548                     i1l1566:
  4406  0548  0858               	movf	___fladd@a,w
  4407  0549  02D4               	subwf	___fladd@b,f
  4408  054A  0859               	movf	___fladd@a+1,w
  4409  054B  1C03               	skipc
  4410  054C  0F59               	incfsz	___fladd@a+1,w
  4411  054D  02D5               	subwf	___fladd@b+1,f
  4412  054E  085A               	movf	___fladd@a+2,w
  4413  054F  1C03               	skipc
  4414  0550  0F5A               	incfsz	___fladd@a+2,w
  4415  0551  02D6               	subwf	___fladd@b+2,f
  4416  0552  085B               	movf	___fladd@a+3,w
  4417  0553  1C03               	skipc
  4418  0554  0F5B               	incfsz	___fladd@a+3,w
  4419  0555  02D7               	subwf	___fladd@b+3,f
  4420  0556                     i1l500:
  4421  0556  0857               	movf	___fladd@b+3,w
  4422  0557  0456               	iorwf	___fladd@b+2,w
  4423  0558  0455               	iorwf	___fladd@b+1,w
  4424  0559  0454               	iorwf	___fladd@b,w
  4425  055A  1D03               	skipz
  4426  055B  2D5D               	goto	u191_21
  4427  055C  2D5E               	goto	u191_20
  4428  055D                     u191_21:
  4429  055D  2D8A               	goto	i1l1588
  4430  055E                     u191_20:
  4431  055E                     i1l1568:
  4432  055E  0867               	movf	___fladd@grs,w
  4433  055F  1D03               	btfss	3,2
  4434  0560  2D62               	goto	u192_21
  4435  0561  2D63               	goto	u192_20
  4436  0562                     u192_21:
  4437  0562  2D8A               	goto	i1l1588
  4438  0563                     u192_20:
  4439  0563                     i1l1570:
  4440  0563  3000               	movlw	0
  4441  0564  00D7               	movwf	?___fladd+3
  4442  0565  3000               	movlw	0
  4443  0566  00D6               	movwf	?___fladd+2
  4444  0567  3000               	movlw	0
  4445  0568  00D5               	movwf	?___fladd+1
  4446  0569  3000               	movlw	0
  4447  056A  00D4               	movwf	?___fladd
  4448  056B  2E08               	goto	i1l492
  4449  056C                     i1l1574:
  4450  056C  3001               	movlw	1
  4451  056D  00DC               	movwf	??___fladd
  4452  056E                     u193_25:
  4453  056E  1003               	clrc
  4454  056F  0DD4               	rlf	___fladd@b,f
  4455  0570  0DD5               	rlf	___fladd@b+1,f
  4456  0571  0DD6               	rlf	___fladd@b+2,f
  4457  0572  0DD7               	rlf	___fladd@b+3,f
  4458  0573  0BDC               	decfsz	??___fladd,f
  4459  0574  2D6E               	goto	u193_25
  4460  0575                     i1l1576:
  4461  0575  1FE7               	btfss	___fladd@grs,7
  4462  0576  2D78               	goto	u194_21
  4463  0577  2D79               	goto	u194_20
  4464  0578                     u194_21:
  4465  0578  2D7A               	goto	i1l504
  4466  0579                     u194_20:
  4467  0579                     i1l1578:
  4468  0579  1454               	bsf	___fladd@b,0
  4469  057A                     i1l504:
  4470  057A  1C67               	btfss	___fladd@grs,0
  4471  057B  2D7D               	goto	u195_21
  4472  057C  2D7E               	goto	u195_20
  4473  057D                     u195_21:
  4474  057D  2D81               	goto	i1l1582
  4475  057E                     u195_20:
  4476  057E                     i1l1580:
  4477  057E  1403               	setc
  4478  057F  0DE7               	rlf	___fladd@grs,f
  4479  0580  2D83               	goto	i1l1584
  4480  0581                     i1l1582:
  4481  0581  1003               	clrc
  4482  0582  0DE7               	rlf	___fladd@grs,f
  4483  0583                     i1l1584:
  4484  0583  0866               	movf	___fladd@bexp,w
  4485  0584  1903               	btfsc	3,2
  4486  0585  2D87               	goto	u196_21
  4487  0586  2D88               	goto	u196_20
  4488  0587                     u196_21:
  4489  0587  2D8A               	goto	i1l1588
  4490  0588                     u196_20:
  4491  0588                     i1l1586:
  4492  0588  3001               	movlw	1
  4493  0589  02E6               	subwf	___fladd@bexp,f
  4494  058A                     i1l1588:
  4495  058A  1FD6               	btfss	___fladd@b+2,7
  4496  058B  2D8D               	goto	u197_21
  4497  058C  2D8E               	goto	u197_20
  4498  058D                     u197_21:
  4499  058D  2D6C               	goto	i1l1574
  4500  058E                     u197_20:
  4501  058E                     i1l1590:
  4502  058E  01E5               	clrf	___fladd@aexp
  4503  058F                     i1l1592:
  4504  058F  1FE7               	btfss	___fladd@grs,7
  4505  0590  2D92               	goto	u198_21
  4506  0591  2D93               	goto	u198_20
  4507  0592                     u198_21:
  4508  0592  2DA1               	goto	i1l1600
  4509  0593                     u198_20:
  4510  0593                     i1l1594:
  4511  0593  0867               	movf	___fladd@grs,w
  4512  0594  397F               	andlw	127
  4513  0595  1903               	btfsc	3,2
  4514  0596  2D98               	goto	u199_21
  4515  0597  2D99               	goto	u199_20
  4516  0598                     u199_21:
  4517  0598  2D9C               	goto	i1l510
  4518  0599                     u199_20:
  4519  0599                     i1l1596:
  4520  0599  01E5               	clrf	___fladd@aexp
  4521  059A  0AE5               	incf	___fladd@aexp,f
  4522  059B  2DA1               	goto	i1l1600
  4523  059C                     i1l510:
  4524  059C  1C54               	btfss	___fladd@b,0
  4525  059D  2D9F               	goto	u200_21
  4526  059E  2DA0               	goto	u200_20
  4527  059F                     u200_21:
  4528  059F  2DA1               	goto	i1l1600
  4529  05A0                     u200_20:
  4530  05A0  2D99               	goto	i1l1596
  4531  05A1                     i1l1600:
  4532  05A1  0865               	movf	___fladd@aexp,w
  4533  05A2  1903               	btfsc	3,2
  4534  05A3  2DA5               	goto	u201_21
  4535  05A4  2DA6               	goto	u201_20
  4536  05A5                     u201_21:
  4537  05A5  2DDA               	goto	i1l513
  4538  05A6                     u201_20:
  4539  05A6                     i1l1602:
  4540  05A6  3001               	movlw	1
  4541  05A7  07D4               	addwf	___fladd@b,f
  4542  05A8  3000               	movlw	0
  4543  05A9  1803               	skipnc
  4544  05AA  3001               	movlw	1
  4545  05AB  07D5               	addwf	___fladd@b+1,f
  4546  05AC  3000               	movlw	0
  4547  05AD  1803               	skipnc
  4548  05AE  3001               	movlw	1
  4549  05AF  07D6               	addwf	___fladd@b+2,f
  4550  05B0  3000               	movlw	0
  4551  05B1  1803               	skipnc
  4552  05B2  3001               	movlw	1
  4553  05B3  07D7               	addwf	___fladd@b+3,f
  4554  05B4                     i1l1604:
  4555  05B4  1C57               	btfss	___fladd@b+3,0
  4556  05B5  2DB7               	goto	u202_21
  4557  05B6  2DB8               	goto	u202_20
  4558  05B7                     u202_21:
  4559  05B7  2DDA               	goto	i1l513
  4560  05B8                     u202_20:
  4561  05B8                     i1l1606:
  4562  05B8  0854               	movf	___fladd@b,w
  4563  05B9  00DC               	movwf	??___fladd
  4564  05BA  0855               	movf	___fladd@b+1,w
  4565  05BB  00DD               	movwf	??___fladd+1
  4566  05BC  0856               	movf	___fladd@b+2,w
  4567  05BD  00DE               	movwf	??___fladd+2
  4568  05BE  0857               	movf	___fladd@b+3,w
  4569  05BF  00DF               	movwf	??___fladd+3
  4570  05C0  3001               	movlw	1
  4571  05C1  00E0               	movwf	??___fladd+4
  4572  05C2                     u203_25:
  4573  05C2  0D5F               	rlf	??___fladd+3,w
  4574  05C3  0CDF               	rrf	??___fladd+3,f
  4575  05C4  0CDE               	rrf	??___fladd+2,f
  4576  05C5  0CDD               	rrf	??___fladd+1,f
  4577  05C6  0CDC               	rrf	??___fladd,f
  4578  05C7                     u203_20:
  4579  05C7  0BE0               	decfsz	??___fladd+4,f
  4580  05C8  2DC2               	goto	u203_25
  4581  05C9  085F               	movf	??___fladd+3,w
  4582  05CA  00D7               	movwf	___fladd@b+3
  4583  05CB  085E               	movf	??___fladd+2,w
  4584  05CC  00D6               	movwf	___fladd@b+2
  4585  05CD  085D               	movf	??___fladd+1,w
  4586  05CE  00D5               	movwf	___fladd@b+1
  4587  05CF  085C               	movf	??___fladd,w
  4588  05D0  00D4               	movwf	___fladd@b
  4589  05D1  0A66               	incf	___fladd@bexp,w
  4590  05D2  1903               	btfsc	3,2
  4591  05D3  2DD5               	goto	u204_21
  4592  05D4  2DD6               	goto	u204_20
  4593  05D5                     u204_21:
  4594  05D5  2DDA               	goto	i1l513
  4595  05D6                     u204_20:
  4596  05D6                     i1l1608:
  4597  05D6  3001               	movlw	1
  4598  05D7  00DC               	movwf	??___fladd
  4599  05D8  085C               	movf	??___fladd,w
  4600  05D9  07E6               	addwf	___fladd@bexp,f
  4601  05DA                     i1l513:
  4602  05DA  0A66               	incf	___fladd@bexp,w
  4603  05DB  1903               	btfsc	3,2
  4604  05DC  2DDE               	goto	u205_21
  4605  05DD  2DDF               	goto	u205_20
  4606  05DE                     u205_21:
  4607  05DE  2DE4               	goto	i1l1612
  4608  05DF                     u205_20:
  4609  05DF                     i1l1610:
  4610  05DF  0866               	movf	___fladd@bexp,w
  4611  05E0  1D03               	btfss	3,2
  4612  05E1  2DE3               	goto	u206_21
  4613  05E2  2DE4               	goto	u206_20
  4614  05E3                     u206_21:
  4615  05E3  2DF2               	goto	i1l1618
  4616  05E4                     u206_20:
  4617  05E4                     i1l1612:
  4618  05E4  3000               	movlw	0
  4619  05E5  00D7               	movwf	___fladd@b+3
  4620  05E6  3000               	movlw	0
  4621  05E7  00D6               	movwf	___fladd@b+2
  4622  05E8  3000               	movlw	0
  4623  05E9  00D5               	movwf	___fladd@b+1
  4624  05EA  3000               	movlw	0
  4625  05EB  00D4               	movwf	___fladd@b
  4626  05EC                     i1l1614:
  4627  05EC  0866               	movf	___fladd@bexp,w
  4628  05ED  1D03               	btfss	3,2
  4629  05EE  2DF0               	goto	u207_21
  4630  05EF  2DF1               	goto	u207_20
  4631  05F0                     u207_21:
  4632  05F0  2DF2               	goto	i1l1618
  4633  05F1                     u207_20:
  4634  05F1                     i1l1616:
  4635  05F1  01E4               	clrf	___fladd@signs
  4636  05F2                     i1l1618:
  4637  05F2  1C66               	btfss	___fladd@bexp,0
  4638  05F3  2DF5               	goto	u208_21
  4639  05F4  2DF6               	goto	u208_20
  4640  05F5                     u208_21:
  4641  05F5  2DF8               	goto	i1l1622
  4642  05F6                     u208_20:
  4643  05F6                     i1l1620:
  4644  05F6  17D6               	bsf	___fladd@b+2,7
  4645  05F7  2DFC               	goto	i1l521
  4646  05F8                     i1l1622:
  4647  05F8  307F               	movlw	127
  4648  05F9  00DC               	movwf	??___fladd
  4649  05FA  085C               	movf	??___fladd,w
  4650  05FB  05D6               	andwf	___fladd@b+2,f
  4651  05FC                     i1l521:
  4652  05FC  0866               	movf	___fladd@bexp,w
  4653  05FD  00DC               	movwf	??___fladd
  4654  05FE  1003               	clrc
  4655  05FF  0C5C               	rrf	??___fladd,w
  4656  0600  00DD               	movwf	??___fladd+1
  4657  0601  085D               	movf	??___fladd+1,w
  4658  0602  00D7               	movwf	___fladd@b+3
  4659  0603                     i1l1624:
  4660  0603  1FE4               	btfss	___fladd@signs,7
  4661  0604  2E06               	goto	u209_21
  4662  0605  2E07               	goto	u209_20
  4663  0606                     u209_21:
  4664  0606  2E08               	goto	i1l522
  4665  0607                     u209_20:
  4666  0607                     i1l1626:
  4667  0607  17D7               	bsf	___fladd@b+3,7
  4668  0608                     i1l522:
  4669  0608                     i1l492:
  4670  0608  0008               	return
  4671  0609                     __end_of___fladd:
  4672  007E                     btemp	set	126	;btemp
  4673  007E                     wtemp0	set	126
  4674                           
  4675                           	psect	idloc
  4676                           
  4677                           ;Config register IDLOC0 @ 0x2000
  4678                           ;	unspecified, using default values
  4679  2000                     	org	8192
  4680  2000  3FFF               	dw	16383
  4681                           
  4682                           ;Config register IDLOC1 @ 0x2001
  4683                           ;	unspecified, using default values
  4684  2001                     	org	8193
  4685  2001  3FFF               	dw	16383
  4686                           
  4687                           ;Config register IDLOC2 @ 0x2002
  4688                           ;	unspecified, using default values
  4689  2002                     	org	8194
  4690  2002  3FFF               	dw	16383
  4691                           
  4692                           ;Config register IDLOC3 @ 0x2003
  4693                           ;	unspecified, using default values
  4694  2003                     	org	8195
  4695  2003  3FFF               	dw	16383
  4696                           
  4697                           	psect	config
  4698                           
  4699                           ;Config register CONFIG1 @ 0x2007
  4700                           ;	Oscillator Selection bits
  4701                           ;	FOSC = INTRC_NOCLKOUT, INTOSCIO oscillator: I/O function on RA6/OSC2/CLKOUT pin, I/O f
      +                          unction on RA7/OSC1/CLKIN
  4702                           ;	Watchdog Timer Enable bit
  4703                           ;	WDTE = OFF, WDT disabled and can be enabled by SWDTEN bit of the WDTCON register
  4704                           ;	Power-up Timer Enable bit
  4705                           ;	PWRTE = OFF, PWRT disabled
  4706                           ;	RE3/MCLR pin function select bit
  4707                           ;	MCLRE = OFF, RE3/MCLR pin function is digital input, MCLR internally tied to VDD
  4708                           ;	Code Protection bit
  4709                           ;	CP = OFF, Program memory code protection is disabled
  4710                           ;	Data Code Protection bit
  4711                           ;	CPD = OFF, Data memory code protection is disabled
  4712                           ;	Brown Out Reset Selection bits
  4713                           ;	BOREN = OFF, BOR disabled
  4714                           ;	Internal External Switchover bit
  4715                           ;	IESO = OFF, Internal/External Switchover mode is disabled
  4716                           ;	Fail-Safe Clock Monitor Enabled bit
  4717                           ;	FCMEN = OFF, Fail-Safe Clock Monitor is disabled
  4718                           ;	Low Voltage Programming Enable bit
  4719                           ;	LVP = OFF, RB3 pin has digital I/O, HV on MCLR must be used for programming
  4720                           ;	In-Circuit Debugger Mode bit
  4721                           ;	DEBUG = 0x1, unprogrammed default
  4722  2007                     	org	8199
  4723  2007  20D4               	dw	8404
  4724                           
  4725                           ;Config register CONFIG2 @ 0x2008
  4726                           ;	Brown-out Reset Selection bit
  4727                           ;	BOR4V = BOR40V, Brown-out Reset set to 4.0V
  4728                           ;	Flash Program Memory Self Write Enable bits
  4729                           ;	WRT = OFF, Write protection off
  4730  2008                     	org	8200
  4731  2008  3FFF               	dw	16383

Data Sizes:
    Strings     0
    Constant    0
    Data        0
    BSS         7
    Persistent  0
    Stack       0

Auto Spaces:
    Space          Size  Autos    Used
    COMMON           14     14      14
    BANK0            80     79      79
    BANK1            80     19      26
    BANK3            96      0       0
    BANK2            96      0       0

Pointer List with Targets:

    None.

Critical Paths under _main in COMMON

    None.

Critical Paths under _isr in COMMON

    _map->___xxtofl
    ___fltol->___xxtofl
    ___flmul->___xxtofl
    ___fldiv->___xxtofl
    ___fladd->___xxtofl

Critical Paths under _main in BANK0

    None.

Critical Paths under _isr in BANK0

    _isr->_map
    _map->___fltol
    ___fltol->___fladd
    ___flmul->___fldiv
    ___fladd->___flmul

Critical Paths under _main in BANK1

    _main->_setup

Critical Paths under _isr in BANK1

    _isr->_map
    _map->___fltol

Critical Paths under _main in BANK3

    None.

Critical Paths under _isr in BANK3

    None.

Critical Paths under _main in BANK2

    None.

Critical Paths under _isr in BANK2

    None.

Call Graph Tables:

 ---------------------------------------------------------------------------------
 (Depth) Function   	        Calls       Base Space   Used Autos Params    Refs
 ---------------------------------------------------------------------------------
 (0) _main                                                 1     1      0       0
                                             18 BANK1      1     1      0
                              _setup
 ---------------------------------------------------------------------------------
 (1) _setup                                                1     1      0       0
                                             17 BANK1      1     1      0
 ---------------------------------------------------------------------------------
 Estimated maximum stack depth 1
 ---------------------------------------------------------------------------------
 (Depth) Function   	        Calls       Base Space   Used Autos Params    Refs
 ---------------------------------------------------------------------------------
 (2) _isr                                                  6     6      0    7645
                                             11 BANK1      6     6      0
                                _map
 ---------------------------------------------------------------------------------
 (3) _map                                                  7     1      6    7645
                                             78 BANK0      1     1      0
                                              5 BANK1      6     0      6
                            ___fladd
                            ___fldiv
                            ___flmul
                            ___fltol
                           ___xxtofl
 ---------------------------------------------------------------------------------
 (4) ___xxtofl                                            14    10      4     626
                                              0 COMMON    14    10      4
 ---------------------------------------------------------------------------------
 (4) ___fltol                                             11     7      4     305
                                             72 BANK0      6     2      4
                                              0 BANK1      5     5      0
                            ___fladd (ARG)
                            ___fldiv (ARG)
                            ___flmul (ARG)
                           ___xxtofl (ARG)
 ---------------------------------------------------------------------------------
 (4) ___flmul                                             26    18      8    2417
                                             26 BANK0     26    18      8
                          __Umul8_16
                            ___fldiv (ARG)
                           ___xxtofl (ARG)
 ---------------------------------------------------------------------------------
 (5) __Umul8_16                                            9     7      2     799
                                              0 COMMON     9     7      2
 ---------------------------------------------------------------------------------
 (4) ___fldiv                                             26    18      8    1273
                                              0 BANK0     26    18      8
                           ___xxtofl (ARG)
 ---------------------------------------------------------------------------------
 (4) ___fladd                                             20    12      8    2262
                                             52 BANK0     20    12      8
                            ___fldiv (ARG)
                            ___flmul (ARG)
                           ___xxtofl (ARG)
 ---------------------------------------------------------------------------------
 Estimated maximum stack depth 5
 ---------------------------------------------------------------------------------

 Call Graph Graphs:

 _main (ROOT)
   _setup

 _isr (ROOT)
   _map
     ___fladd
       ___fldiv (ARG)
         ___xxtofl (ARG)
       ___flmul (ARG)
         __Umul8_16
         ___fldiv (ARG)
         ___xxtofl (ARG)
       ___xxtofl (ARG)
     ___fldiv
     ___flmul
     ___fltol
       ___fladd (ARG)
       ___fldiv (ARG)
       ___flmul (ARG)
       ___xxtofl (ARG)
     ___xxtofl

 Address spaces:
Name               Size   Autos  Total    Cost      Usage
BITCOMMON            E      0       0       0        0.0%
EEDATA             100      0       0       0        0.0%
NULL                 0      0       0       0        0.0%
CODE                 0      0       0       0        0.0%
COMMON               E      E       E       1      100.0%
BITSFR0              0      0       0       1        0.0%
SFR0                 0      0       0       1        0.0%
BITSFR1              0      0       0       2        0.0%
SFR1                 0      0       0       2        0.0%
STACK                0      0       0       2        0.0%
ABS                  0      0      77       3        0.0%
BITBANK0            50      0       0       4        0.0%
BITSFR3              0      0       0       4        0.0%
SFR3                 0      0       0       4        0.0%
BANK0               50     4F      4F       5       98.8%
BITSFR2              0      0       0       5        0.0%
SFR2                 0      0       0       5        0.0%
BITBANK1            50      0       0       6        0.0%
BANK1               50     13      1A       7       32.5%
BITBANK3            60      0       0       8        0.0%
BANK3               60      0       0       9        0.0%
BITBANK2            60      0       0      10        0.0%
BANK2               60      0       0      11        0.0%
DATA                 0      0      77      12        0.0%


Microchip Technology PIC Macro Assembler V2.35 build 20211206165544 
Symbol Table                                                                                   Sat Apr 30 17:04:08 2022

           ___fldiv@aexp 0039             ___fldiv@bexp 0038             ___fldiv@sign 0031  
                     l94 0CEA                       l96 0CEE                       l97 0D05  
    __Umul8_16@word_mpld 0076                      _PR2 0092                      _map 0DA2  
                    _isr 0F0E             ___flmul@aexp 004C             ___flmul@bexp 004D  
           ___flmul@sign 0047             ___flmul@temp 0052             ___flmul@prod 004E  
           ___fltol@exp1 006D                     l2000 0CD9                     l2010 0CE6  
                   l2002 0CDE                     l2012 0CE7                     l2004 0CE2  
                   l2014 0CE9                     l2006 0CE4                     l2016 0CFF  
                   l2008 0CE5                     l2018 0D01                     l2060 0C53  
                   l2070 0C86                     l2062 0C5E                     l2072 0C8A  
                   l2064 0C65                     l2056 0C48                     l2074 0C91  
                   l2066 0C72                     l2058 0C4D                     l2068 0C79  
                   l1960 0C9C                     l1970 0CAC                     l1962 0C9D  
                   l1980 0CBB                     l1972 0CAD                     l1964 0CA1  
                   l1990 0CCC                     l1982 0CBE                     l1974 0CB3  
                   l1966 0CA3                     l1958 0C98                     ?_map 00A5  
                   l1992 0CCE                     l1984 0CC1                     l1976 0CB6  
                   l1968 0CA6                     l1994 0CD1                     l1986 0CC8  
                   l1978 0CB7                     l1996 0CD3                     l1988 0CCB  
                   l1998 0CD7                     ?_isr 0070                     _CCPR 00B7  
                   u3000 0C86                     u3001 0C85                     u3017 0C8E  
                   u3027 0CC5                     u2900 0CEE                     u2901 0CED  
                   u2970 0C53                     u2971 0C52                     u2980 0C5E  
                   u2981 0C5D                     u2990 0C72                     u2991 0C71  
                   i1l75 0FEF                     i1l67 0FD6                     i1l76 0FF2  
                   i1l77 0FF5                     _POT3 00B3                     _TMR0 0001  
                   _main 0C48                     map@x 006E                     btemp 007E  
                   start 0010          ___fldiv@new_exp 0032                    ??_map 007E  
                  ??_isr 00AB            ___fltol@sign1 006C          __end_of___fladd 0609  
                  ?_main 0070          __end_of___fldiv 07E6          __end_of___flmul 0381  
        __end_of___fltol 0DA2                    _ANSEL 0188                    i1l100 0E53  
                  i1l500 0556                    i1l510 059C                    i1l504 057A  
                  i1l521 05FC                    i1l513 05DA                    i1l522 0608  
                  i1l372 0DA1                    i1l621 0F0D                    i1l382 0DA1  
                  i1l551 0757                    i1l535 0665                    i1l632 0ED7  
                  i1l537 07E5                    i1l633 0EE3                    i1l625 0EBB  
                  i1l483 048B                    i1l379 0D8C                    i1l619 0E76  
                  i1l492 0608                    i1l485 0462                    i1l557 07C9  
                  i1l581 02EC                    i1l479 03E4                    i1l559 07D9  
                  i1l575 0380                    i1l594 0C35                    i1l587 0374  
                  i1l596 0C47                    _PORTA 0005                    _TRISA 0085  
                  _TRISC 0087                    map@x0 00A5                    map@x1 00A6  
                  map@y0 00A7                    map@y1 00A9                    _setup 0C98  
                  pclath 000A                    status 0003                    wtemp0 007E  
        __initialization 0013             __end_of_main 0C98                   ??_main 00B2  
                 _ADRESH 001E                   _CCPR1L 0015                   _CCPR2L 001B  
                 _CCPR_2 00B5                   ?_setup 0070                   _ANSELH 0189  
                 i1l2020 0F0E                   i1l2030 0F5A                   i1l2022 0F14  
                 i1l1400 0D17                   i1l2032 0F67                   i1l2040 0FBB  
                 i1l2024 0F1F                   i1l1410 0D4E                   i1l2050 0FEB  
                 i1l2042 0FC8                   i1l2034 0F82                   i1l2026 0F3A  
                 i1l1500 0416                   i1l1420 0D5C                   i1l1412 0D50  
                 i1l1404 0D20                   i1l2052 0FF3                   i1l2036 0F90  
                 i1l2044 0FD3                   i1l2028 0F48                   i1l1510 042A  
                 i1l1502 041A                   i1l1430 0D91                   i1l1414 0D54  
                 i1l1422 0D72                   i1l1406 0D45                   i1l2046 0FDA  
                 i1l2038 0FA1                   u200_20 05A0                   i1l1600 05A1  
                 i1l1520 046F                   i1l1504 041E                   i1l1512 042E  
                 i1l1440 0392                   i1l1432 0D96                   i1l1408 0D46  
                 i1l2048 0FE0                   u200_21 059F                   i1l1610 05DF  
                 i1l1602 05A6                   i1l1522 0471                   i1l1530 0483  
                 i1l1514 042F                   i1l1506 0422                   i1l1450 03A6  
                 i1l1442 0393                   i1l1434 0381                   i1l1620 05F6  
                 i1l1612 05E4                   i1l1604 05B4                   i1l1540 04B4  
                 i1l1532 048F                   i1l1524 0475                   i1l1516 0446  
                 i1l1508 0426                   i1l1460 03BC                   i1l1444 0398  
                 i1l1452 03A8                   i1l1436 0388                   i1l1700 06DC  
                 i1l1428 0D79                   i1l1622 05F8                   i1l1614 05EC  
                 i1l1606 05B8                   i1l1550 04CB                   i1l1542 04B8  
                 i1l1534 0494                   i1l1526 0476                   i1l1518 0466  
                 i1l1470 03D1                   i1l1462 03C2                   i1l1454 03B0  
                 i1l1446 039D                   i1l1438 038E                   i1l1702 06E5  
                 i1l1710 070A                   i1l1630 0610                   i1l1390 0C2F  
                 i1l1624 0603                   i1l1616 05F1                   i1l1608 05D6  
                 u201_20 05A6                   i1l1560 052E                   i1l1552 04CC  
                 i1l1544 04BC                   i1l1528 047F                   i1l1480 03EE  
                 i1l1472 03D9                   i1l1464 03C6                   i1l1456 03B5  
                 i1l1448 03A5                   i1l1720 0727                   i1l1712 0710  
                 i1l1704 06F7                   i1l1640 0625                   i1l1632 0616  
                 i1l1392 0C3E                   i1l1384 0C22                   i1l1800 0068  
                 u201_21 05A5                   i1l1626 0607                   i1l1618 05F2  
                 i1l1570 0563                   i1l1562 0534                   i1l1554 04D5  
                 i1l1546 04C5                   i1l1538 049D                   i1l1490 0402  
                 i1l1482 03F2                   i1l1474 03DA                   i1l1466 03C7  
                 i1l1458 03BB                   i1l1730 073C                   i1l1722 0728  
                 i1l1714 0718                   i1l1706 06F8                   i1l1650 063D  
                 i1l1642 062D                   i1l1634 061A                   i1l1394 0C43  
                 i1l1386 0C24                   i1l1810 0084                   i1l1802 0070  
                 i1l1580 057E                   i1l1564 0539                   i1l1548 04C7  
                 i1l1556 04DA                   i1l1492 0406                   i1l1484 03F6  
                 i1l1468 03CC                   i1l1476 03DC                   i1l1740 0761  
                 i1l1732 0740                   i1l1724 0731                   i1l1716 071A  
                 i1l1708 0706                   i1l1660 0652                   i1l1652 0643  
                 i1l1644 062E                   i1l1636 061B                   i1l1628 0609  
                 i1l1388 0C2B                   i1l1900 0368                   i1l1820 00C7  
                 i1l1804 0072                   i1l1582 0581                   i1l1574 056C  
                 i1l1558 04F0                   i1l1566 0548                   i1l1590 058E  
                 i1l1494 040A                   i1l1486 03FA                   i1l1478 03EA  
                 i1l1750 079F                   i1l1742 076F                   i1l1734 0754  
                 i1l1718 0723                   i1l1726 0737                   i1l1670 0679  
                 i1l1662 065A                   i1l1654 0647                   i1l1638 0620  
                 i1l1646 0630                   i1l1902 036C                   i1l1830 0150  
                 i1l1822 00E3                   i1l1814 008D                   i1l1806 007A  
                 i1l1398 0D06                   i1l1910 0E55                   u202_20 05B8  
                 i1l1592 058F                   i1l1584 0583                   i1l1576 0575  
                 i1l1568 055E                   i1l1496 040E                   i1l1488 03FE  
                 i1l1760 07CF                   i1l1752 07AD                   i1l1744 0773  
                 i1l1728 073B                   i1l1672 067D                   i1l1664 065B  
                 i1l1656 0648                   i1l1648 0638                   u210_20 061A  
                 i1l1904 036D                   i1l1840 01C3                   i1l1832 0160  
                 i1l1824 010F                   i1l1816 009D                   i1l1808 007F  
                 i1l1912 0E5A                   u202_21 05B7                   u210_21 0619  
                 i1l1594 0593                   i1l1586 0588                   i1l1578 0579  
                 i1l1498 0412                   i1l1762 07D3                   i1l1754 07BC  
                 i1l1746 078C                   i1l1738 075C                   i1l1690 06BE  
                 i1l1682 0694                   i1l1658 064D                   i1l1666 065D  
                 i1l1906 0378                   i1l1850 0270                   i1l1842 01E0  
                 i1l1834 017D                   i1l1826 012B                   i1l1818 00AA  
                 i1l1770 0020                   i1l1930 0EA4                   i1l1922 0E87  
                 i1l1914 0E5E                   i1l1596 0599                   i1l1588 058A  
                 i1l1764 07D5                   i1l1756 07C0                   i1l1748 0792  
                 i1l1692 06C0                   i1l1684 06A6                   i1l1668 066D  
                 i1l1676 0686                   i1l1860 02BC                   i1l1852 0298  
                 i1l1844 020D                   i1l1836 018D                   i1l1828 0147  
                 i1l1780 0037                   i1l1772 0027                   i1l1940 0EDB  
                 i1l1932 0EB2                   i1l1924 0E8C                   i1l1916 0E6E  
                 i1l1758 07C8                   i1l1694 06C5                   i1l1686 06AE  
                 i1l1678 068B                   i1l1870 02D1                   i1l1862 02BD  
                 i1l1854 02A1                   i1l1846 021D                   i1l1838 01AA  
                 i1l1790 0053                   i1l1782 003C                   i1l1774 002D  
                 i1l1950 0F05                   i1l1942 0EE5                   i1l1934 0EC2  
                 i1l1926 0E99                   i1l1918 0E7E                   u203_20 05C7  
                 i1l1696 06D7                   i1l1688 06B6                   u211_20 0620  
                 i1l1880 02F6                   i1l1872 02D5                   i1l1864 02C6  
                 i1l1856 02AF                   i1l1848 024A                   i1l1792 0059  
                 i1l1784 0044                   i1l1776 0031                   i1l1944 0EFB  
                 i1l1936 0ECD                   i1l1928 0EA0                   u211_21 061F  
                 i1l1698 06DB                   i1l1890 0334                   i1l1882 0304  
                 i1l1874 02E9                   i1l1858 02B8                   i1l1866 02CC  
                 i1l1794 005D                   i1l1786 0046                   i1l1778 0032  
                 i1l1946 0F00                   i1l1938 0ED1                   i1l1954 0DA5  
                 i1l1892 033F                   i1l1884 0308                   i1l1868 02D0  
                 i1l1796 005E                   i1l1788 004E                   i1l1948 0F04  
                 u203_25 05C2                   i1l1894 034E                   i1l1886 0321  
                 i1l1878 02F1                   i1l1798 0063                   u204_20 05D6  
                 u212_20 0625                   i1l1896 0358                   i1l1888 0327  
                 u204_21 05D5                   u212_21 0624                   i1l1898 035A  
                 u220_25 06D0                   u205_20 05DF                   u221_20 06DB  
                 u213_20 0647                   u205_21 05DE                   u221_21 06DA  
                 u213_21 0646                   u206_20 05E4                   u230_20 0740  
                 u214_20 064D                   u206_21 05E3                   u230_21 073F  
                 u214_21 064C                   u222_25 06DE                   u207_20 05F1  
                 u231_20 0754                   u223_20 06F7                   u215_20 0652  
                 u151_20 0C2F                   u207_21 05F0                   u231_21 0753  
                 u223_21 06F6                   u215_21 0651                   u151_21 0C2E  
                 u223_25 06F3                   u208_20 05F6                   u232_20 075B  
                 u224_20 0710                   u216_20 066D                   u240_20 0037  
                 u160_20 0D78                   u208_21 05F5                   u232_21 075A  
                 u224_21 070F                   u216_21 066C                   u240_21 0036  
                 u160_21 0D77                   u152_25 0C36                   u209_20 0607  
                 u233_20 0761                   u225_20 0718                   u217_20 068B  
                 u153_20 0C43                   u241_20 003C                   u209_21 0606  
                 u233_21 0760                   u225_21 0717                   u217_21 068A  
                 u153_21 0C42                   u241_21 003B                   u161_25 0D7D  
                 u170_20 03D1                   u234_20 0773                   u218_20 06C5  
                 u242_20 005D                   u162_20 0D91                   u154_20 0D17  
                 u170_21 03D0                   u234_21 0772                   u218_21 06C4  
                 u250_21 0139                   u242_21 005C                   u162_21 0D90  
                 u154_21 0D16                   u250_22 0140                   u250_23 0147  
                 u226_25 071C                   u171_20 03EA                   u235_20 0782  
                 u227_20 0727                   u243_20 0063                   u163_20 0D96  
                 u155_20 0D3C                   u171_21 03E9                   u227_21 0726  
                 u243_21 0062                   u163_21 0D95                   u235_25 077D  
                 u219_25 06C7                   u251_25 0149                   u155_25 0D37  
                 u180_20 048F                   u172_20 03EE                   u164_20 0392  
                 u236_20 079F                   u260_20 027E                   u244_20 0068  
                 u156_20 0D54                   u180_21 048E                   u172_21 03ED  
                 u164_21 0391                   u236_21 079E                   u252_21 016F  
                 u244_21 0067                   u156_21 0D53                   u252_22 0176  
                 u252_23 017D                   u236_25 079B                   u228_25 072A  
                 u260_25 0279                   u181_20 0494                   u173_20 0446  
                 u165_20 0398                   u237_20 07BC                   u229_20 073B  
                 u245_20 007F                   u157_20 0D5B                   u181_21 0493  
                 u173_21 0445                   u165_21 0397                   u237_21 07BB  
                 u229_21 073A                   u261_21 028A                   u253_21 019C  
                 u245_21 007E                   u157_21 0D5A                   u261_22 0291  
                 u253_22 01A3                   u261_23 0298                   u253_23 01AA  
                 u173_25 0442                   u237_25 07B8                   u190_20 0539  
                 u174_20 0451                   u166_20 039D                   u238_20 07D3  
                 u270_20 02F6                   u246_20 0084                   u190_21 0538  
                 u182_21 04A6                   u174_21 044F                   u166_21 039C  
                 u238_21 07D2                   u270_21 02F5                   u246_21 0083  
                 u182_22 04AD                   u182_23 04B4                   u262_25 029A  
                 u254_25 01AC                   u158_25 0D5D                   u191_20 055E  
                 u183_20 04B8                   u175_20 0452                   u167_20 03BB  
                 u271_20 0308                   u239_20 0031                   u159_20 0D71  
                 u191_21 055D                   u183_21 04B7                   u167_21 03BA  
                 u271_21 0307                   u255_21 01D2                   u247_21 00D5  
                 u239_21 0030                   u159_21 0D70                   u255_22 01D9  
                 u247_22 00DC                   u255_23 01E0                   u247_23 00E3  
                 u263_25 02B1                   u192_20 0563                   u184_20 04BC  
                 u176_20 0466                   u168_20 03C6                   u272_20 0317  
                 u264_20 02BC                   u280_20 0E9F                   u192_21 0562  
                 u184_21 04BB                   u176_21 0465                   u168_21 03C5  
                 u264_21 02BB                   u256_21 01FF                   u248_21 00F1  
                 u280_21 0E9E                   u256_22 0206                   u248_22 00F8  
                 u256_23 020D                   u248_23 00FF                   u272_25 0312  
                 u185_20 04CB                   u177_20 0475                   u169_20 03CC  
                 u273_20 0334                   u185_21 04CA                   u177_21 0474  
                 u169_21 03CB                   u273_21 0333                   u257_21 022C  
                 u249_21 011D                   u257_22 0233                   u249_22 0124  
                 u257_23 023A                   u249_23 012B                   u193_25 056E  
                 u273_25 0330                   u265_25 02BF                   u281_25 0EB3  
                 u194_20 0579                   u274_20 034E                   u266_20 02D0  
                 u258_20 0256                   u282_20 0EC1                   u194_21 0578  
                 u274_21 034D                   u266_21 02CF                   u282_21 0EC0  
                 u186_25 04CE                   u178_25 0478                   u274_25 034A  
                 u258_25 0251                   u195_20 057E                   u187_20 04F0  
                 u179_20 048B                   u275_20 036C                   u267_20 02D5  
                 u291_20 0F14                   u195_21 057D                   u187_21 04EF  
                 u179_21 048A                   u275_21 036B                   u267_21 02D4  
                 u259_21 0262                   u291_21 0F13                   u259_22 0269  
                 u187_23 04EC                   u259_23 0270                   u283_25 0EC6  
                 u196_20 0588                   u268_20 02E9                   u284_20 0ED1  
                 u276_20 0E5A                   u292_20 0F1F                   u196_21 0587  
                 u188_21 0507                   u268_21 02E8                   u284_21 0ED0  
                 u276_21 0E59                   u292_21 0F1E                   u188_22 0508  
                 u188_23 050D                   u188_24 050E                   u188_25 0513  
                 u188_26 0514                   u197_20 058E                   u189_20 051B  
                 u269_20 02F0                   u285_20 0ED7                   u277_20 0E5E  
                 u293_20 0F67                   u197_21 058D                   u189_21 051C  
                 u269_21 02EF                   u285_21 0ED6                   u277_21 0E5D  
                 u293_21 0F66                   u189_22 0521                   u189_23 0522  
                 u198_20 0593                   u286_20 0EDB                   u278_20 0E7E  
                 u294_20 0FC8                   u198_21 0592                   u286_21 0EDA  
                 u278_21 0E7D                   u294_21 0FC7                   u199_20 0599  
                 u287_20 0EF0                   u295_20 0FDA                   u199_21 0598  
                 u295_21 0FD9                   u287_25 0EEB                   u279_25 0E91  
                 u288_20 0F00                   u296_20 0FEB                   u288_21 0EFF  
                 u296_21 0FEA                   u296_25 0FE7                   u289_20 0F04  
                 u289_21 0F03         __end_of___xxtofl 0F0E                ??___fladd 005C  
              ??___fldiv 0028                ??___flmul 0042                ??___fltol 00A0  
                 saved_w 007E             ___xxtofl@arg 007A             ___xxtofl@exp 0079  
           ___xxtofl@val 0070  __end_of__initialization 001C               ___fltol@f1 0068  
         __pcstackCOMMON 0070            __end_of_setup 0D06           _OPTION_REGbits 0081  
                ??_setup 00B1               __pbssBANK1 00B3        __end_of__Umul8_16 0C48  
             __pmaintext 0C48               __pintentry 0004                  _CCP1CON 0017  
                _CCP2CON 001D                ?___xxtofl 0070                  ___fladd 0381  
                ___fldiv 0609                  ___flmul 0020                  ___fltol 0D06  
                __ptext1 0C98                  __ptext2 0F0E                  __ptext3 0DA2  
                __ptext4 0E54                  __ptext5 0D06                  __ptext6 0020  
                __ptext7 0C21                  __ptext8 0609                  __ptext9 0381  
              _T2CONbits 0012               ??___xxtofl 0074     end_of_initialization 001C  
              _PORTCbits 0007              ___fladd@grs 0067            ___xxtofl@sign 0078  
              _TRISCbits 0087              ___fldiv@grs 0034              ___fldiv@rem 002D  
            ___flmul@grs 0048              _CCP1CONbits 0017              _CCP2CONbits 001D  
    start_initialization 0013              __end_of_map 0E54              __end_of_isr 1000  
              __Umul8_16 0C21                ___fladd@a 0058                ___fladd@b 0054  
              ___fldiv@a 0020                ___fldiv@b 0024                ___flmul@a 003E  
              ___flmul@b 003A                ___latbits 0002            __pcstackBANK0 0020  
          __pcstackBANK1 00A0                 ?___fladd 0054                 ?___fldiv 0020  
               ?___flmul 003A                 ?___fltol 0068               ?__Umul8_16 0070  
      interrupt_function 0004                 _PIE1bits 008C                 _PIR1bits 000C  
             _ADCON0bits 001F               _ADCON1bits 009F              ??__Umul8_16 0072  
               ___xxtofl 0E54                 _contador 00B9               _INTCONbits 000B  
               intlevel1 0000               _OSCCONbits 008F   __Umul8_16@multiplicand 0070  
          ___fladd@signs 0064             ___fladd@aexp 0065             ___fladd@bexp 0066  
   __Umul8_16@multiplier 0078        __Umul8_16@product 0074  
